
HMI_ECU.elf:     file format elf32-avr

Sections:
Idx Name          Size      VMA       LMA       File off  Algn
  0 .text         00002ec8  00000000  00000000  00000094  2**1
                  CONTENTS, ALLOC, LOAD, READONLY, CODE
  1 .data         000001c4  00800060  00002ec8  00002f5c  2**0
                  CONTENTS, ALLOC, LOAD, DATA
  2 .bss          0000000a  00800224  00800224  00003120  2**0
                  ALLOC
  3 .stab         00002ca0  00000000  00000000  00003120  2**2
                  CONTENTS, READONLY, DEBUGGING
  4 .stabstr      00001282  00000000  00000000  00005dc0  2**0
                  CONTENTS, READONLY, DEBUGGING
  5 .debug_aranges 00000140  00000000  00000000  00007042  2**0
                  CONTENTS, READONLY, DEBUGGING
  6 .debug_pubnames 00000170  00000000  00000000  00007182  2**0
                  CONTENTS, READONLY, DEBUGGING
  7 .debug_info   00001c49  00000000  00000000  000072f2  2**0
                  CONTENTS, READONLY, DEBUGGING
  8 .debug_abbrev 00000eeb  00000000  00000000  00008f3b  2**0
                  CONTENTS, READONLY, DEBUGGING
  9 .debug_line   00000dad  00000000  00000000  00009e26  2**0
                  CONTENTS, READONLY, DEBUGGING
 10 .debug_frame  00000160  00000000  00000000  0000abd4  2**2
                  CONTENTS, READONLY, DEBUGGING
 11 .debug_str    0000028d  00000000  00000000  0000ad34  2**0
                  CONTENTS, READONLY, DEBUGGING
 12 .debug_loc    000007ce  00000000  00000000  0000afc1  2**0
                  CONTENTS, READONLY, DEBUGGING
 13 .debug_ranges 00000050  00000000  00000000  0000b78f  2**0
                  CONTENTS, READONLY, DEBUGGING

Disassembly of section .text:

00000000 <__vectors>:
       0:	0c 94 2a 00 	jmp	0x54	; 0x54 <__ctors_end>
       4:	0c 94 47 00 	jmp	0x8e	; 0x8e <__bad_interrupt>
       8:	0c 94 47 00 	jmp	0x8e	; 0x8e <__bad_interrupt>
       c:	0c 94 47 00 	jmp	0x8e	; 0x8e <__bad_interrupt>
      10:	0c 94 47 00 	jmp	0x8e	; 0x8e <__bad_interrupt>
      14:	0c 94 47 00 	jmp	0x8e	; 0x8e <__bad_interrupt>
      18:	0c 94 5a 0c 	jmp	0x18b4	; 0x18b4 <__vector_6>
      1c:	0c 94 47 00 	jmp	0x8e	; 0x8e <__bad_interrupt>
      20:	0c 94 47 00 	jmp	0x8e	; 0x8e <__bad_interrupt>
      24:	0c 94 47 00 	jmp	0x8e	; 0x8e <__bad_interrupt>
      28:	0c 94 47 00 	jmp	0x8e	; 0x8e <__bad_interrupt>
      2c:	0c 94 47 00 	jmp	0x8e	; 0x8e <__bad_interrupt>
      30:	0c 94 47 00 	jmp	0x8e	; 0x8e <__bad_interrupt>
      34:	0c 94 47 00 	jmp	0x8e	; 0x8e <__bad_interrupt>
      38:	0c 94 47 00 	jmp	0x8e	; 0x8e <__bad_interrupt>
      3c:	0c 94 47 00 	jmp	0x8e	; 0x8e <__bad_interrupt>
      40:	0c 94 47 00 	jmp	0x8e	; 0x8e <__bad_interrupt>
      44:	0c 94 47 00 	jmp	0x8e	; 0x8e <__bad_interrupt>
      48:	0c 94 47 00 	jmp	0x8e	; 0x8e <__bad_interrupt>
      4c:	0c 94 47 00 	jmp	0x8e	; 0x8e <__bad_interrupt>
      50:	0c 94 47 00 	jmp	0x8e	; 0x8e <__bad_interrupt>

00000054 <__ctors_end>:
      54:	11 24       	eor	r1, r1
      56:	1f be       	out	0x3f, r1	; 63
      58:	cf e5       	ldi	r28, 0x5F	; 95
      5a:	d4 e0       	ldi	r29, 0x04	; 4
      5c:	de bf       	out	0x3e, r29	; 62
      5e:	cd bf       	out	0x3d, r28	; 61

00000060 <__do_copy_data>:
      60:	12 e0       	ldi	r17, 0x02	; 2
      62:	a0 e6       	ldi	r26, 0x60	; 96
      64:	b0 e0       	ldi	r27, 0x00	; 0
      66:	e8 ec       	ldi	r30, 0xC8	; 200
      68:	fe e2       	ldi	r31, 0x2E	; 46
      6a:	02 c0       	rjmp	.+4      	; 0x70 <.do_copy_data_start>

0000006c <.do_copy_data_loop>:
      6c:	05 90       	lpm	r0, Z+
      6e:	0d 92       	st	X+, r0

00000070 <.do_copy_data_start>:
      70:	a4 32       	cpi	r26, 0x24	; 36
      72:	b1 07       	cpc	r27, r17
      74:	d9 f7       	brne	.-10     	; 0x6c <.do_copy_data_loop>

00000076 <__do_clear_bss>:
      76:	12 e0       	ldi	r17, 0x02	; 2
      78:	a4 e2       	ldi	r26, 0x24	; 36
      7a:	b2 e0       	ldi	r27, 0x02	; 2
      7c:	01 c0       	rjmp	.+2      	; 0x80 <.do_clear_bss_start>

0000007e <.do_clear_bss_loop>:
      7e:	1d 92       	st	X+, r1

00000080 <.do_clear_bss_start>:
      80:	ae 32       	cpi	r26, 0x2E	; 46
      82:	b1 07       	cpc	r27, r17
      84:	e1 f7       	brne	.-8      	; 0x7e <.do_clear_bss_loop>
      86:	0e 94 01 0e 	call	0x1c02	; 0x1c02 <main>
      8a:	0c 94 62 17 	jmp	0x2ec4	; 0x2ec4 <_exit>

0000008e <__bad_interrupt>:
      8e:	0c 94 00 00 	jmp	0	; 0x0 <__vectors>

00000092 <__fixunssfsi>:
      92:	ef 92       	push	r14
      94:	ff 92       	push	r15
      96:	0f 93       	push	r16
      98:	1f 93       	push	r17
      9a:	7b 01       	movw	r14, r22
      9c:	8c 01       	movw	r16, r24
      9e:	20 e0       	ldi	r18, 0x00	; 0
      a0:	30 e0       	ldi	r19, 0x00	; 0
      a2:	40 e0       	ldi	r20, 0x00	; 0
      a4:	5f e4       	ldi	r21, 0x4F	; 79
      a6:	0e 94 49 03 	call	0x692	; 0x692 <__gesf2>
      aa:	88 23       	and	r24, r24
      ac:	8c f0       	brlt	.+34     	; 0xd0 <__fixunssfsi+0x3e>
      ae:	c8 01       	movw	r24, r16
      b0:	b7 01       	movw	r22, r14
      b2:	20 e0       	ldi	r18, 0x00	; 0
      b4:	30 e0       	ldi	r19, 0x00	; 0
      b6:	40 e0       	ldi	r20, 0x00	; 0
      b8:	5f e4       	ldi	r21, 0x4F	; 79
      ba:	0e 94 c1 01 	call	0x382	; 0x382 <__subsf3>
      be:	0e 94 a9 03 	call	0x752	; 0x752 <__fixsfsi>
      c2:	9b 01       	movw	r18, r22
      c4:	ac 01       	movw	r20, r24
      c6:	20 50       	subi	r18, 0x00	; 0
      c8:	30 40       	sbci	r19, 0x00	; 0
      ca:	40 40       	sbci	r20, 0x00	; 0
      cc:	50 48       	sbci	r21, 0x80	; 128
      ce:	06 c0       	rjmp	.+12     	; 0xdc <__fixunssfsi+0x4a>
      d0:	c8 01       	movw	r24, r16
      d2:	b7 01       	movw	r22, r14
      d4:	0e 94 a9 03 	call	0x752	; 0x752 <__fixsfsi>
      d8:	9b 01       	movw	r18, r22
      da:	ac 01       	movw	r20, r24
      dc:	b9 01       	movw	r22, r18
      de:	ca 01       	movw	r24, r20
      e0:	1f 91       	pop	r17
      e2:	0f 91       	pop	r16
      e4:	ff 90       	pop	r15
      e6:	ef 90       	pop	r14
      e8:	08 95       	ret

000000ea <_fpadd_parts>:
      ea:	a0 e0       	ldi	r26, 0x00	; 0
      ec:	b0 e0       	ldi	r27, 0x00	; 0
      ee:	eb e7       	ldi	r30, 0x7B	; 123
      f0:	f0 e0       	ldi	r31, 0x00	; 0
      f2:	0c 94 2b 17 	jmp	0x2e56	; 0x2e56 <__prologue_saves__>
      f6:	dc 01       	movw	r26, r24
      f8:	2b 01       	movw	r4, r22
      fa:	fa 01       	movw	r30, r20
      fc:	9c 91       	ld	r25, X
      fe:	92 30       	cpi	r25, 0x02	; 2
     100:	08 f4       	brcc	.+2      	; 0x104 <_fpadd_parts+0x1a>
     102:	39 c1       	rjmp	.+626    	; 0x376 <_fpadd_parts+0x28c>
     104:	eb 01       	movw	r28, r22
     106:	88 81       	ld	r24, Y
     108:	82 30       	cpi	r24, 0x02	; 2
     10a:	08 f4       	brcc	.+2      	; 0x10e <_fpadd_parts+0x24>
     10c:	33 c1       	rjmp	.+614    	; 0x374 <_fpadd_parts+0x28a>
     10e:	94 30       	cpi	r25, 0x04	; 4
     110:	69 f4       	brne	.+26     	; 0x12c <_fpadd_parts+0x42>
     112:	84 30       	cpi	r24, 0x04	; 4
     114:	09 f0       	breq	.+2      	; 0x118 <_fpadd_parts+0x2e>
     116:	2f c1       	rjmp	.+606    	; 0x376 <_fpadd_parts+0x28c>
     118:	11 96       	adiw	r26, 0x01	; 1
     11a:	9c 91       	ld	r25, X
     11c:	11 97       	sbiw	r26, 0x01	; 1
     11e:	89 81       	ldd	r24, Y+1	; 0x01
     120:	98 17       	cp	r25, r24
     122:	09 f4       	brne	.+2      	; 0x126 <_fpadd_parts+0x3c>
     124:	28 c1       	rjmp	.+592    	; 0x376 <_fpadd_parts+0x28c>
     126:	aa ef       	ldi	r26, 0xFA	; 250
     128:	b1 e0       	ldi	r27, 0x01	; 1
     12a:	25 c1       	rjmp	.+586    	; 0x376 <_fpadd_parts+0x28c>
     12c:	84 30       	cpi	r24, 0x04	; 4
     12e:	09 f4       	brne	.+2      	; 0x132 <_fpadd_parts+0x48>
     130:	21 c1       	rjmp	.+578    	; 0x374 <_fpadd_parts+0x28a>
     132:	82 30       	cpi	r24, 0x02	; 2
     134:	a9 f4       	brne	.+42     	; 0x160 <_fpadd_parts+0x76>
     136:	92 30       	cpi	r25, 0x02	; 2
     138:	09 f0       	breq	.+2      	; 0x13c <_fpadd_parts+0x52>
     13a:	1d c1       	rjmp	.+570    	; 0x376 <_fpadd_parts+0x28c>
     13c:	9a 01       	movw	r18, r20
     13e:	ad 01       	movw	r20, r26
     140:	88 e0       	ldi	r24, 0x08	; 8
     142:	ea 01       	movw	r28, r20
     144:	09 90       	ld	r0, Y+
     146:	ae 01       	movw	r20, r28
     148:	e9 01       	movw	r28, r18
     14a:	09 92       	st	Y+, r0
     14c:	9e 01       	movw	r18, r28
     14e:	81 50       	subi	r24, 0x01	; 1
     150:	c1 f7       	brne	.-16     	; 0x142 <_fpadd_parts+0x58>
     152:	e2 01       	movw	r28, r4
     154:	89 81       	ldd	r24, Y+1	; 0x01
     156:	11 96       	adiw	r26, 0x01	; 1
     158:	9c 91       	ld	r25, X
     15a:	89 23       	and	r24, r25
     15c:	81 83       	std	Z+1, r24	; 0x01
     15e:	08 c1       	rjmp	.+528    	; 0x370 <_fpadd_parts+0x286>
     160:	92 30       	cpi	r25, 0x02	; 2
     162:	09 f4       	brne	.+2      	; 0x166 <_fpadd_parts+0x7c>
     164:	07 c1       	rjmp	.+526    	; 0x374 <_fpadd_parts+0x28a>
     166:	12 96       	adiw	r26, 0x02	; 2
     168:	2d 90       	ld	r2, X+
     16a:	3c 90       	ld	r3, X
     16c:	13 97       	sbiw	r26, 0x03	; 3
     16e:	eb 01       	movw	r28, r22
     170:	8a 81       	ldd	r24, Y+2	; 0x02
     172:	9b 81       	ldd	r25, Y+3	; 0x03
     174:	14 96       	adiw	r26, 0x04	; 4
     176:	ad 90       	ld	r10, X+
     178:	bd 90       	ld	r11, X+
     17a:	cd 90       	ld	r12, X+
     17c:	dc 90       	ld	r13, X
     17e:	17 97       	sbiw	r26, 0x07	; 7
     180:	ec 80       	ldd	r14, Y+4	; 0x04
     182:	fd 80       	ldd	r15, Y+5	; 0x05
     184:	0e 81       	ldd	r16, Y+6	; 0x06
     186:	1f 81       	ldd	r17, Y+7	; 0x07
     188:	91 01       	movw	r18, r2
     18a:	28 1b       	sub	r18, r24
     18c:	39 0b       	sbc	r19, r25
     18e:	b9 01       	movw	r22, r18
     190:	37 ff       	sbrs	r19, 7
     192:	04 c0       	rjmp	.+8      	; 0x19c <_fpadd_parts+0xb2>
     194:	66 27       	eor	r22, r22
     196:	77 27       	eor	r23, r23
     198:	62 1b       	sub	r22, r18
     19a:	73 0b       	sbc	r23, r19
     19c:	60 32       	cpi	r22, 0x20	; 32
     19e:	71 05       	cpc	r23, r1
     1a0:	0c f0       	brlt	.+2      	; 0x1a4 <_fpadd_parts+0xba>
     1a2:	61 c0       	rjmp	.+194    	; 0x266 <_fpadd_parts+0x17c>
     1a4:	12 16       	cp	r1, r18
     1a6:	13 06       	cpc	r1, r19
     1a8:	6c f5       	brge	.+90     	; 0x204 <_fpadd_parts+0x11a>
     1aa:	37 01       	movw	r6, r14
     1ac:	48 01       	movw	r8, r16
     1ae:	06 2e       	mov	r0, r22
     1b0:	04 c0       	rjmp	.+8      	; 0x1ba <_fpadd_parts+0xd0>
     1b2:	96 94       	lsr	r9
     1b4:	87 94       	ror	r8
     1b6:	77 94       	ror	r7
     1b8:	67 94       	ror	r6
     1ba:	0a 94       	dec	r0
     1bc:	d2 f7       	brpl	.-12     	; 0x1b2 <_fpadd_parts+0xc8>
     1be:	21 e0       	ldi	r18, 0x01	; 1
     1c0:	30 e0       	ldi	r19, 0x00	; 0
     1c2:	40 e0       	ldi	r20, 0x00	; 0
     1c4:	50 e0       	ldi	r21, 0x00	; 0
     1c6:	04 c0       	rjmp	.+8      	; 0x1d0 <_fpadd_parts+0xe6>
     1c8:	22 0f       	add	r18, r18
     1ca:	33 1f       	adc	r19, r19
     1cc:	44 1f       	adc	r20, r20
     1ce:	55 1f       	adc	r21, r21
     1d0:	6a 95       	dec	r22
     1d2:	d2 f7       	brpl	.-12     	; 0x1c8 <_fpadd_parts+0xde>
     1d4:	21 50       	subi	r18, 0x01	; 1
     1d6:	30 40       	sbci	r19, 0x00	; 0
     1d8:	40 40       	sbci	r20, 0x00	; 0
     1da:	50 40       	sbci	r21, 0x00	; 0
     1dc:	2e 21       	and	r18, r14
     1de:	3f 21       	and	r19, r15
     1e0:	40 23       	and	r20, r16
     1e2:	51 23       	and	r21, r17
     1e4:	21 15       	cp	r18, r1
     1e6:	31 05       	cpc	r19, r1
     1e8:	41 05       	cpc	r20, r1
     1ea:	51 05       	cpc	r21, r1
     1ec:	21 f0       	breq	.+8      	; 0x1f6 <_fpadd_parts+0x10c>
     1ee:	21 e0       	ldi	r18, 0x01	; 1
     1f0:	30 e0       	ldi	r19, 0x00	; 0
     1f2:	40 e0       	ldi	r20, 0x00	; 0
     1f4:	50 e0       	ldi	r21, 0x00	; 0
     1f6:	79 01       	movw	r14, r18
     1f8:	8a 01       	movw	r16, r20
     1fa:	e6 28       	or	r14, r6
     1fc:	f7 28       	or	r15, r7
     1fe:	08 29       	or	r16, r8
     200:	19 29       	or	r17, r9
     202:	3c c0       	rjmp	.+120    	; 0x27c <_fpadd_parts+0x192>
     204:	23 2b       	or	r18, r19
     206:	d1 f1       	breq	.+116    	; 0x27c <_fpadd_parts+0x192>
     208:	26 0e       	add	r2, r22
     20a:	37 1e       	adc	r3, r23
     20c:	35 01       	movw	r6, r10
     20e:	46 01       	movw	r8, r12
     210:	06 2e       	mov	r0, r22
     212:	04 c0       	rjmp	.+8      	; 0x21c <_fpadd_parts+0x132>
     214:	96 94       	lsr	r9
     216:	87 94       	ror	r8
     218:	77 94       	ror	r7
     21a:	67 94       	ror	r6
     21c:	0a 94       	dec	r0
     21e:	d2 f7       	brpl	.-12     	; 0x214 <_fpadd_parts+0x12a>
     220:	21 e0       	ldi	r18, 0x01	; 1
     222:	30 e0       	ldi	r19, 0x00	; 0
     224:	40 e0       	ldi	r20, 0x00	; 0
     226:	50 e0       	ldi	r21, 0x00	; 0
     228:	04 c0       	rjmp	.+8      	; 0x232 <_fpadd_parts+0x148>
     22a:	22 0f       	add	r18, r18
     22c:	33 1f       	adc	r19, r19
     22e:	44 1f       	adc	r20, r20
     230:	55 1f       	adc	r21, r21
     232:	6a 95       	dec	r22
     234:	d2 f7       	brpl	.-12     	; 0x22a <_fpadd_parts+0x140>
     236:	21 50       	subi	r18, 0x01	; 1
     238:	30 40       	sbci	r19, 0x00	; 0
     23a:	40 40       	sbci	r20, 0x00	; 0
     23c:	50 40       	sbci	r21, 0x00	; 0
     23e:	2a 21       	and	r18, r10
     240:	3b 21       	and	r19, r11
     242:	4c 21       	and	r20, r12
     244:	5d 21       	and	r21, r13
     246:	21 15       	cp	r18, r1
     248:	31 05       	cpc	r19, r1
     24a:	41 05       	cpc	r20, r1
     24c:	51 05       	cpc	r21, r1
     24e:	21 f0       	breq	.+8      	; 0x258 <_fpadd_parts+0x16e>
     250:	21 e0       	ldi	r18, 0x01	; 1
     252:	30 e0       	ldi	r19, 0x00	; 0
     254:	40 e0       	ldi	r20, 0x00	; 0
     256:	50 e0       	ldi	r21, 0x00	; 0
     258:	59 01       	movw	r10, r18
     25a:	6a 01       	movw	r12, r20
     25c:	a6 28       	or	r10, r6
     25e:	b7 28       	or	r11, r7
     260:	c8 28       	or	r12, r8
     262:	d9 28       	or	r13, r9
     264:	0b c0       	rjmp	.+22     	; 0x27c <_fpadd_parts+0x192>
     266:	82 15       	cp	r24, r2
     268:	93 05       	cpc	r25, r3
     26a:	2c f0       	brlt	.+10     	; 0x276 <_fpadd_parts+0x18c>
     26c:	1c 01       	movw	r2, r24
     26e:	aa 24       	eor	r10, r10
     270:	bb 24       	eor	r11, r11
     272:	65 01       	movw	r12, r10
     274:	03 c0       	rjmp	.+6      	; 0x27c <_fpadd_parts+0x192>
     276:	ee 24       	eor	r14, r14
     278:	ff 24       	eor	r15, r15
     27a:	87 01       	movw	r16, r14
     27c:	11 96       	adiw	r26, 0x01	; 1
     27e:	9c 91       	ld	r25, X
     280:	d2 01       	movw	r26, r4
     282:	11 96       	adiw	r26, 0x01	; 1
     284:	8c 91       	ld	r24, X
     286:	98 17       	cp	r25, r24
     288:	09 f4       	brne	.+2      	; 0x28c <_fpadd_parts+0x1a2>
     28a:	45 c0       	rjmp	.+138    	; 0x316 <_fpadd_parts+0x22c>
     28c:	99 23       	and	r25, r25
     28e:	39 f0       	breq	.+14     	; 0x29e <_fpadd_parts+0x1b4>
     290:	a8 01       	movw	r20, r16
     292:	97 01       	movw	r18, r14
     294:	2a 19       	sub	r18, r10
     296:	3b 09       	sbc	r19, r11
     298:	4c 09       	sbc	r20, r12
     29a:	5d 09       	sbc	r21, r13
     29c:	06 c0       	rjmp	.+12     	; 0x2aa <_fpadd_parts+0x1c0>
     29e:	a6 01       	movw	r20, r12
     2a0:	95 01       	movw	r18, r10
     2a2:	2e 19       	sub	r18, r14
     2a4:	3f 09       	sbc	r19, r15
     2a6:	40 0b       	sbc	r20, r16
     2a8:	51 0b       	sbc	r21, r17
     2aa:	57 fd       	sbrc	r21, 7
     2ac:	08 c0       	rjmp	.+16     	; 0x2be <_fpadd_parts+0x1d4>
     2ae:	11 82       	std	Z+1, r1	; 0x01
     2b0:	33 82       	std	Z+3, r3	; 0x03
     2b2:	22 82       	std	Z+2, r2	; 0x02
     2b4:	24 83       	std	Z+4, r18	; 0x04
     2b6:	35 83       	std	Z+5, r19	; 0x05
     2b8:	46 83       	std	Z+6, r20	; 0x06
     2ba:	57 83       	std	Z+7, r21	; 0x07
     2bc:	1d c0       	rjmp	.+58     	; 0x2f8 <_fpadd_parts+0x20e>
     2be:	81 e0       	ldi	r24, 0x01	; 1
     2c0:	81 83       	std	Z+1, r24	; 0x01
     2c2:	33 82       	std	Z+3, r3	; 0x03
     2c4:	22 82       	std	Z+2, r2	; 0x02
     2c6:	88 27       	eor	r24, r24
     2c8:	99 27       	eor	r25, r25
     2ca:	dc 01       	movw	r26, r24
     2cc:	82 1b       	sub	r24, r18
     2ce:	93 0b       	sbc	r25, r19
     2d0:	a4 0b       	sbc	r26, r20
     2d2:	b5 0b       	sbc	r27, r21
     2d4:	84 83       	std	Z+4, r24	; 0x04
     2d6:	95 83       	std	Z+5, r25	; 0x05
     2d8:	a6 83       	std	Z+6, r26	; 0x06
     2da:	b7 83       	std	Z+7, r27	; 0x07
     2dc:	0d c0       	rjmp	.+26     	; 0x2f8 <_fpadd_parts+0x20e>
     2de:	22 0f       	add	r18, r18
     2e0:	33 1f       	adc	r19, r19
     2e2:	44 1f       	adc	r20, r20
     2e4:	55 1f       	adc	r21, r21
     2e6:	24 83       	std	Z+4, r18	; 0x04
     2e8:	35 83       	std	Z+5, r19	; 0x05
     2ea:	46 83       	std	Z+6, r20	; 0x06
     2ec:	57 83       	std	Z+7, r21	; 0x07
     2ee:	82 81       	ldd	r24, Z+2	; 0x02
     2f0:	93 81       	ldd	r25, Z+3	; 0x03
     2f2:	01 97       	sbiw	r24, 0x01	; 1
     2f4:	93 83       	std	Z+3, r25	; 0x03
     2f6:	82 83       	std	Z+2, r24	; 0x02
     2f8:	24 81       	ldd	r18, Z+4	; 0x04
     2fa:	35 81       	ldd	r19, Z+5	; 0x05
     2fc:	46 81       	ldd	r20, Z+6	; 0x06
     2fe:	57 81       	ldd	r21, Z+7	; 0x07
     300:	da 01       	movw	r26, r20
     302:	c9 01       	movw	r24, r18
     304:	01 97       	sbiw	r24, 0x01	; 1
     306:	a1 09       	sbc	r26, r1
     308:	b1 09       	sbc	r27, r1
     30a:	8f 5f       	subi	r24, 0xFF	; 255
     30c:	9f 4f       	sbci	r25, 0xFF	; 255
     30e:	af 4f       	sbci	r26, 0xFF	; 255
     310:	bf 43       	sbci	r27, 0x3F	; 63
     312:	28 f3       	brcs	.-54     	; 0x2de <_fpadd_parts+0x1f4>
     314:	0b c0       	rjmp	.+22     	; 0x32c <_fpadd_parts+0x242>
     316:	91 83       	std	Z+1, r25	; 0x01
     318:	33 82       	std	Z+3, r3	; 0x03
     31a:	22 82       	std	Z+2, r2	; 0x02
     31c:	ea 0c       	add	r14, r10
     31e:	fb 1c       	adc	r15, r11
     320:	0c 1d       	adc	r16, r12
     322:	1d 1d       	adc	r17, r13
     324:	e4 82       	std	Z+4, r14	; 0x04
     326:	f5 82       	std	Z+5, r15	; 0x05
     328:	06 83       	std	Z+6, r16	; 0x06
     32a:	17 83       	std	Z+7, r17	; 0x07
     32c:	83 e0       	ldi	r24, 0x03	; 3
     32e:	80 83       	st	Z, r24
     330:	24 81       	ldd	r18, Z+4	; 0x04
     332:	35 81       	ldd	r19, Z+5	; 0x05
     334:	46 81       	ldd	r20, Z+6	; 0x06
     336:	57 81       	ldd	r21, Z+7	; 0x07
     338:	57 ff       	sbrs	r21, 7
     33a:	1a c0       	rjmp	.+52     	; 0x370 <_fpadd_parts+0x286>
     33c:	c9 01       	movw	r24, r18
     33e:	aa 27       	eor	r26, r26
     340:	97 fd       	sbrc	r25, 7
     342:	a0 95       	com	r26
     344:	ba 2f       	mov	r27, r26
     346:	81 70       	andi	r24, 0x01	; 1
     348:	90 70       	andi	r25, 0x00	; 0
     34a:	a0 70       	andi	r26, 0x00	; 0
     34c:	b0 70       	andi	r27, 0x00	; 0
     34e:	56 95       	lsr	r21
     350:	47 95       	ror	r20
     352:	37 95       	ror	r19
     354:	27 95       	ror	r18
     356:	82 2b       	or	r24, r18
     358:	93 2b       	or	r25, r19
     35a:	a4 2b       	or	r26, r20
     35c:	b5 2b       	or	r27, r21
     35e:	84 83       	std	Z+4, r24	; 0x04
     360:	95 83       	std	Z+5, r25	; 0x05
     362:	a6 83       	std	Z+6, r26	; 0x06
     364:	b7 83       	std	Z+7, r27	; 0x07
     366:	82 81       	ldd	r24, Z+2	; 0x02
     368:	93 81       	ldd	r25, Z+3	; 0x03
     36a:	01 96       	adiw	r24, 0x01	; 1
     36c:	93 83       	std	Z+3, r25	; 0x03
     36e:	82 83       	std	Z+2, r24	; 0x02
     370:	df 01       	movw	r26, r30
     372:	01 c0       	rjmp	.+2      	; 0x376 <_fpadd_parts+0x28c>
     374:	d2 01       	movw	r26, r4
     376:	cd 01       	movw	r24, r26
     378:	cd b7       	in	r28, 0x3d	; 61
     37a:	de b7       	in	r29, 0x3e	; 62
     37c:	e2 e1       	ldi	r30, 0x12	; 18
     37e:	0c 94 47 17 	jmp	0x2e8e	; 0x2e8e <__epilogue_restores__>

00000382 <__subsf3>:
     382:	a0 e2       	ldi	r26, 0x20	; 32
     384:	b0 e0       	ldi	r27, 0x00	; 0
     386:	e7 ec       	ldi	r30, 0xC7	; 199
     388:	f1 e0       	ldi	r31, 0x01	; 1
     38a:	0c 94 37 17 	jmp	0x2e6e	; 0x2e6e <__prologue_saves__+0x18>
     38e:	69 83       	std	Y+1, r22	; 0x01
     390:	7a 83       	std	Y+2, r23	; 0x02
     392:	8b 83       	std	Y+3, r24	; 0x03
     394:	9c 83       	std	Y+4, r25	; 0x04
     396:	2d 83       	std	Y+5, r18	; 0x05
     398:	3e 83       	std	Y+6, r19	; 0x06
     39a:	4f 83       	std	Y+7, r20	; 0x07
     39c:	58 87       	std	Y+8, r21	; 0x08
     39e:	e9 e0       	ldi	r30, 0x09	; 9
     3a0:	ee 2e       	mov	r14, r30
     3a2:	f1 2c       	mov	r15, r1
     3a4:	ec 0e       	add	r14, r28
     3a6:	fd 1e       	adc	r15, r29
     3a8:	ce 01       	movw	r24, r28
     3aa:	01 96       	adiw	r24, 0x01	; 1
     3ac:	b7 01       	movw	r22, r14
     3ae:	0e 94 d2 04 	call	0x9a4	; 0x9a4 <__unpack_f>
     3b2:	8e 01       	movw	r16, r28
     3b4:	0f 5e       	subi	r16, 0xEF	; 239
     3b6:	1f 4f       	sbci	r17, 0xFF	; 255
     3b8:	ce 01       	movw	r24, r28
     3ba:	05 96       	adiw	r24, 0x05	; 5
     3bc:	b8 01       	movw	r22, r16
     3be:	0e 94 d2 04 	call	0x9a4	; 0x9a4 <__unpack_f>
     3c2:	8a 89       	ldd	r24, Y+18	; 0x12
     3c4:	91 e0       	ldi	r25, 0x01	; 1
     3c6:	89 27       	eor	r24, r25
     3c8:	8a 8b       	std	Y+18, r24	; 0x12
     3ca:	c7 01       	movw	r24, r14
     3cc:	b8 01       	movw	r22, r16
     3ce:	ae 01       	movw	r20, r28
     3d0:	47 5e       	subi	r20, 0xE7	; 231
     3d2:	5f 4f       	sbci	r21, 0xFF	; 255
     3d4:	0e 94 75 00 	call	0xea	; 0xea <_fpadd_parts>
     3d8:	0e 94 fd 03 	call	0x7fa	; 0x7fa <__pack_f>
     3dc:	a0 96       	adiw	r28, 0x20	; 32
     3de:	e6 e0       	ldi	r30, 0x06	; 6
     3e0:	0c 94 53 17 	jmp	0x2ea6	; 0x2ea6 <__epilogue_restores__+0x18>

000003e4 <__addsf3>:
     3e4:	a0 e2       	ldi	r26, 0x20	; 32
     3e6:	b0 e0       	ldi	r27, 0x00	; 0
     3e8:	e8 ef       	ldi	r30, 0xF8	; 248
     3ea:	f1 e0       	ldi	r31, 0x01	; 1
     3ec:	0c 94 37 17 	jmp	0x2e6e	; 0x2e6e <__prologue_saves__+0x18>
     3f0:	69 83       	std	Y+1, r22	; 0x01
     3f2:	7a 83       	std	Y+2, r23	; 0x02
     3f4:	8b 83       	std	Y+3, r24	; 0x03
     3f6:	9c 83       	std	Y+4, r25	; 0x04
     3f8:	2d 83       	std	Y+5, r18	; 0x05
     3fa:	3e 83       	std	Y+6, r19	; 0x06
     3fc:	4f 83       	std	Y+7, r20	; 0x07
     3fe:	58 87       	std	Y+8, r21	; 0x08
     400:	f9 e0       	ldi	r31, 0x09	; 9
     402:	ef 2e       	mov	r14, r31
     404:	f1 2c       	mov	r15, r1
     406:	ec 0e       	add	r14, r28
     408:	fd 1e       	adc	r15, r29
     40a:	ce 01       	movw	r24, r28
     40c:	01 96       	adiw	r24, 0x01	; 1
     40e:	b7 01       	movw	r22, r14
     410:	0e 94 d2 04 	call	0x9a4	; 0x9a4 <__unpack_f>
     414:	8e 01       	movw	r16, r28
     416:	0f 5e       	subi	r16, 0xEF	; 239
     418:	1f 4f       	sbci	r17, 0xFF	; 255
     41a:	ce 01       	movw	r24, r28
     41c:	05 96       	adiw	r24, 0x05	; 5
     41e:	b8 01       	movw	r22, r16
     420:	0e 94 d2 04 	call	0x9a4	; 0x9a4 <__unpack_f>
     424:	c7 01       	movw	r24, r14
     426:	b8 01       	movw	r22, r16
     428:	ae 01       	movw	r20, r28
     42a:	47 5e       	subi	r20, 0xE7	; 231
     42c:	5f 4f       	sbci	r21, 0xFF	; 255
     42e:	0e 94 75 00 	call	0xea	; 0xea <_fpadd_parts>
     432:	0e 94 fd 03 	call	0x7fa	; 0x7fa <__pack_f>
     436:	a0 96       	adiw	r28, 0x20	; 32
     438:	e6 e0       	ldi	r30, 0x06	; 6
     43a:	0c 94 53 17 	jmp	0x2ea6	; 0x2ea6 <__epilogue_restores__+0x18>

0000043e <__mulsf3>:
     43e:	a0 e2       	ldi	r26, 0x20	; 32
     440:	b0 e0       	ldi	r27, 0x00	; 0
     442:	e5 e2       	ldi	r30, 0x25	; 37
     444:	f2 e0       	ldi	r31, 0x02	; 2
     446:	0c 94 2b 17 	jmp	0x2e56	; 0x2e56 <__prologue_saves__>
     44a:	69 83       	std	Y+1, r22	; 0x01
     44c:	7a 83       	std	Y+2, r23	; 0x02
     44e:	8b 83       	std	Y+3, r24	; 0x03
     450:	9c 83       	std	Y+4, r25	; 0x04
     452:	2d 83       	std	Y+5, r18	; 0x05
     454:	3e 83       	std	Y+6, r19	; 0x06
     456:	4f 83       	std	Y+7, r20	; 0x07
     458:	58 87       	std	Y+8, r21	; 0x08
     45a:	ce 01       	movw	r24, r28
     45c:	01 96       	adiw	r24, 0x01	; 1
     45e:	be 01       	movw	r22, r28
     460:	67 5f       	subi	r22, 0xF7	; 247
     462:	7f 4f       	sbci	r23, 0xFF	; 255
     464:	0e 94 d2 04 	call	0x9a4	; 0x9a4 <__unpack_f>
     468:	ce 01       	movw	r24, r28
     46a:	05 96       	adiw	r24, 0x05	; 5
     46c:	be 01       	movw	r22, r28
     46e:	6f 5e       	subi	r22, 0xEF	; 239
     470:	7f 4f       	sbci	r23, 0xFF	; 255
     472:	0e 94 d2 04 	call	0x9a4	; 0x9a4 <__unpack_f>
     476:	99 85       	ldd	r25, Y+9	; 0x09
     478:	92 30       	cpi	r25, 0x02	; 2
     47a:	88 f0       	brcs	.+34     	; 0x49e <__stack+0x3f>
     47c:	89 89       	ldd	r24, Y+17	; 0x11
     47e:	82 30       	cpi	r24, 0x02	; 2
     480:	c8 f0       	brcs	.+50     	; 0x4b4 <__stack+0x55>
     482:	94 30       	cpi	r25, 0x04	; 4
     484:	19 f4       	brne	.+6      	; 0x48c <__stack+0x2d>
     486:	82 30       	cpi	r24, 0x02	; 2
     488:	51 f4       	brne	.+20     	; 0x49e <__stack+0x3f>
     48a:	04 c0       	rjmp	.+8      	; 0x494 <__stack+0x35>
     48c:	84 30       	cpi	r24, 0x04	; 4
     48e:	29 f4       	brne	.+10     	; 0x49a <__stack+0x3b>
     490:	92 30       	cpi	r25, 0x02	; 2
     492:	81 f4       	brne	.+32     	; 0x4b4 <__stack+0x55>
     494:	8a ef       	ldi	r24, 0xFA	; 250
     496:	91 e0       	ldi	r25, 0x01	; 1
     498:	c6 c0       	rjmp	.+396    	; 0x626 <__stack+0x1c7>
     49a:	92 30       	cpi	r25, 0x02	; 2
     49c:	49 f4       	brne	.+18     	; 0x4b0 <__stack+0x51>
     49e:	20 e0       	ldi	r18, 0x00	; 0
     4a0:	9a 85       	ldd	r25, Y+10	; 0x0a
     4a2:	8a 89       	ldd	r24, Y+18	; 0x12
     4a4:	98 13       	cpse	r25, r24
     4a6:	21 e0       	ldi	r18, 0x01	; 1
     4a8:	2a 87       	std	Y+10, r18	; 0x0a
     4aa:	ce 01       	movw	r24, r28
     4ac:	09 96       	adiw	r24, 0x09	; 9
     4ae:	bb c0       	rjmp	.+374    	; 0x626 <__stack+0x1c7>
     4b0:	82 30       	cpi	r24, 0x02	; 2
     4b2:	49 f4       	brne	.+18     	; 0x4c6 <__stack+0x67>
     4b4:	20 e0       	ldi	r18, 0x00	; 0
     4b6:	9a 85       	ldd	r25, Y+10	; 0x0a
     4b8:	8a 89       	ldd	r24, Y+18	; 0x12
     4ba:	98 13       	cpse	r25, r24
     4bc:	21 e0       	ldi	r18, 0x01	; 1
     4be:	2a 8b       	std	Y+18, r18	; 0x12
     4c0:	ce 01       	movw	r24, r28
     4c2:	41 96       	adiw	r24, 0x11	; 17
     4c4:	b0 c0       	rjmp	.+352    	; 0x626 <__stack+0x1c7>
     4c6:	2d 84       	ldd	r2, Y+13	; 0x0d
     4c8:	3e 84       	ldd	r3, Y+14	; 0x0e
     4ca:	4f 84       	ldd	r4, Y+15	; 0x0f
     4cc:	58 88       	ldd	r5, Y+16	; 0x10
     4ce:	6d 88       	ldd	r6, Y+21	; 0x15
     4d0:	7e 88       	ldd	r7, Y+22	; 0x16
     4d2:	8f 88       	ldd	r8, Y+23	; 0x17
     4d4:	98 8c       	ldd	r9, Y+24	; 0x18
     4d6:	ee 24       	eor	r14, r14
     4d8:	ff 24       	eor	r15, r15
     4da:	87 01       	movw	r16, r14
     4dc:	aa 24       	eor	r10, r10
     4de:	bb 24       	eor	r11, r11
     4e0:	65 01       	movw	r12, r10
     4e2:	40 e0       	ldi	r20, 0x00	; 0
     4e4:	50 e0       	ldi	r21, 0x00	; 0
     4e6:	60 e0       	ldi	r22, 0x00	; 0
     4e8:	70 e0       	ldi	r23, 0x00	; 0
     4ea:	e0 e0       	ldi	r30, 0x00	; 0
     4ec:	f0 e0       	ldi	r31, 0x00	; 0
     4ee:	c1 01       	movw	r24, r2
     4f0:	81 70       	andi	r24, 0x01	; 1
     4f2:	90 70       	andi	r25, 0x00	; 0
     4f4:	89 2b       	or	r24, r25
     4f6:	e9 f0       	breq	.+58     	; 0x532 <__stack+0xd3>
     4f8:	e6 0c       	add	r14, r6
     4fa:	f7 1c       	adc	r15, r7
     4fc:	08 1d       	adc	r16, r8
     4fe:	19 1d       	adc	r17, r9
     500:	9a 01       	movw	r18, r20
     502:	ab 01       	movw	r20, r22
     504:	2a 0d       	add	r18, r10
     506:	3b 1d       	adc	r19, r11
     508:	4c 1d       	adc	r20, r12
     50a:	5d 1d       	adc	r21, r13
     50c:	80 e0       	ldi	r24, 0x00	; 0
     50e:	90 e0       	ldi	r25, 0x00	; 0
     510:	a0 e0       	ldi	r26, 0x00	; 0
     512:	b0 e0       	ldi	r27, 0x00	; 0
     514:	e6 14       	cp	r14, r6
     516:	f7 04       	cpc	r15, r7
     518:	08 05       	cpc	r16, r8
     51a:	19 05       	cpc	r17, r9
     51c:	20 f4       	brcc	.+8      	; 0x526 <__stack+0xc7>
     51e:	81 e0       	ldi	r24, 0x01	; 1
     520:	90 e0       	ldi	r25, 0x00	; 0
     522:	a0 e0       	ldi	r26, 0x00	; 0
     524:	b0 e0       	ldi	r27, 0x00	; 0
     526:	ba 01       	movw	r22, r20
     528:	a9 01       	movw	r20, r18
     52a:	48 0f       	add	r20, r24
     52c:	59 1f       	adc	r21, r25
     52e:	6a 1f       	adc	r22, r26
     530:	7b 1f       	adc	r23, r27
     532:	aa 0c       	add	r10, r10
     534:	bb 1c       	adc	r11, r11
     536:	cc 1c       	adc	r12, r12
     538:	dd 1c       	adc	r13, r13
     53a:	97 fe       	sbrs	r9, 7
     53c:	08 c0       	rjmp	.+16     	; 0x54e <__stack+0xef>
     53e:	81 e0       	ldi	r24, 0x01	; 1
     540:	90 e0       	ldi	r25, 0x00	; 0
     542:	a0 e0       	ldi	r26, 0x00	; 0
     544:	b0 e0       	ldi	r27, 0x00	; 0
     546:	a8 2a       	or	r10, r24
     548:	b9 2a       	or	r11, r25
     54a:	ca 2a       	or	r12, r26
     54c:	db 2a       	or	r13, r27
     54e:	31 96       	adiw	r30, 0x01	; 1
     550:	e0 32       	cpi	r30, 0x20	; 32
     552:	f1 05       	cpc	r31, r1
     554:	49 f0       	breq	.+18     	; 0x568 <__stack+0x109>
     556:	66 0c       	add	r6, r6
     558:	77 1c       	adc	r7, r7
     55a:	88 1c       	adc	r8, r8
     55c:	99 1c       	adc	r9, r9
     55e:	56 94       	lsr	r5
     560:	47 94       	ror	r4
     562:	37 94       	ror	r3
     564:	27 94       	ror	r2
     566:	c3 cf       	rjmp	.-122    	; 0x4ee <__stack+0x8f>
     568:	fa 85       	ldd	r31, Y+10	; 0x0a
     56a:	ea 89       	ldd	r30, Y+18	; 0x12
     56c:	2b 89       	ldd	r18, Y+19	; 0x13
     56e:	3c 89       	ldd	r19, Y+20	; 0x14
     570:	8b 85       	ldd	r24, Y+11	; 0x0b
     572:	9c 85       	ldd	r25, Y+12	; 0x0c
     574:	28 0f       	add	r18, r24
     576:	39 1f       	adc	r19, r25
     578:	2e 5f       	subi	r18, 0xFE	; 254
     57a:	3f 4f       	sbci	r19, 0xFF	; 255
     57c:	17 c0       	rjmp	.+46     	; 0x5ac <__stack+0x14d>
     57e:	ca 01       	movw	r24, r20
     580:	81 70       	andi	r24, 0x01	; 1
     582:	90 70       	andi	r25, 0x00	; 0
     584:	89 2b       	or	r24, r25
     586:	61 f0       	breq	.+24     	; 0x5a0 <__stack+0x141>
     588:	16 95       	lsr	r17
     58a:	07 95       	ror	r16
     58c:	f7 94       	ror	r15
     58e:	e7 94       	ror	r14
     590:	80 e0       	ldi	r24, 0x00	; 0
     592:	90 e0       	ldi	r25, 0x00	; 0
     594:	a0 e0       	ldi	r26, 0x00	; 0
     596:	b0 e8       	ldi	r27, 0x80	; 128
     598:	e8 2a       	or	r14, r24
     59a:	f9 2a       	or	r15, r25
     59c:	0a 2b       	or	r16, r26
     59e:	1b 2b       	or	r17, r27
     5a0:	76 95       	lsr	r23
     5a2:	67 95       	ror	r22
     5a4:	57 95       	ror	r21
     5a6:	47 95       	ror	r20
     5a8:	2f 5f       	subi	r18, 0xFF	; 255
     5aa:	3f 4f       	sbci	r19, 0xFF	; 255
     5ac:	77 fd       	sbrc	r23, 7
     5ae:	e7 cf       	rjmp	.-50     	; 0x57e <__stack+0x11f>
     5b0:	0c c0       	rjmp	.+24     	; 0x5ca <__stack+0x16b>
     5b2:	44 0f       	add	r20, r20
     5b4:	55 1f       	adc	r21, r21
     5b6:	66 1f       	adc	r22, r22
     5b8:	77 1f       	adc	r23, r23
     5ba:	17 fd       	sbrc	r17, 7
     5bc:	41 60       	ori	r20, 0x01	; 1
     5be:	ee 0c       	add	r14, r14
     5c0:	ff 1c       	adc	r15, r15
     5c2:	00 1f       	adc	r16, r16
     5c4:	11 1f       	adc	r17, r17
     5c6:	21 50       	subi	r18, 0x01	; 1
     5c8:	30 40       	sbci	r19, 0x00	; 0
     5ca:	40 30       	cpi	r20, 0x00	; 0
     5cc:	90 e0       	ldi	r25, 0x00	; 0
     5ce:	59 07       	cpc	r21, r25
     5d0:	90 e0       	ldi	r25, 0x00	; 0
     5d2:	69 07       	cpc	r22, r25
     5d4:	90 e4       	ldi	r25, 0x40	; 64
     5d6:	79 07       	cpc	r23, r25
     5d8:	60 f3       	brcs	.-40     	; 0x5b2 <__stack+0x153>
     5da:	2b 8f       	std	Y+27, r18	; 0x1b
     5dc:	3c 8f       	std	Y+28, r19	; 0x1c
     5de:	db 01       	movw	r26, r22
     5e0:	ca 01       	movw	r24, r20
     5e2:	8f 77       	andi	r24, 0x7F	; 127
     5e4:	90 70       	andi	r25, 0x00	; 0
     5e6:	a0 70       	andi	r26, 0x00	; 0
     5e8:	b0 70       	andi	r27, 0x00	; 0
     5ea:	80 34       	cpi	r24, 0x40	; 64
     5ec:	91 05       	cpc	r25, r1
     5ee:	a1 05       	cpc	r26, r1
     5f0:	b1 05       	cpc	r27, r1
     5f2:	61 f4       	brne	.+24     	; 0x60c <__stack+0x1ad>
     5f4:	47 fd       	sbrc	r20, 7
     5f6:	0a c0       	rjmp	.+20     	; 0x60c <__stack+0x1ad>
     5f8:	e1 14       	cp	r14, r1
     5fa:	f1 04       	cpc	r15, r1
     5fc:	01 05       	cpc	r16, r1
     5fe:	11 05       	cpc	r17, r1
     600:	29 f0       	breq	.+10     	; 0x60c <__stack+0x1ad>
     602:	40 5c       	subi	r20, 0xC0	; 192
     604:	5f 4f       	sbci	r21, 0xFF	; 255
     606:	6f 4f       	sbci	r22, 0xFF	; 255
     608:	7f 4f       	sbci	r23, 0xFF	; 255
     60a:	40 78       	andi	r20, 0x80	; 128
     60c:	1a 8e       	std	Y+26, r1	; 0x1a
     60e:	fe 17       	cp	r31, r30
     610:	11 f0       	breq	.+4      	; 0x616 <__stack+0x1b7>
     612:	81 e0       	ldi	r24, 0x01	; 1
     614:	8a 8f       	std	Y+26, r24	; 0x1a
     616:	4d 8f       	std	Y+29, r20	; 0x1d
     618:	5e 8f       	std	Y+30, r21	; 0x1e
     61a:	6f 8f       	std	Y+31, r22	; 0x1f
     61c:	78 a3       	std	Y+32, r23	; 0x20
     61e:	83 e0       	ldi	r24, 0x03	; 3
     620:	89 8f       	std	Y+25, r24	; 0x19
     622:	ce 01       	movw	r24, r28
     624:	49 96       	adiw	r24, 0x19	; 25
     626:	0e 94 fd 03 	call	0x7fa	; 0x7fa <__pack_f>
     62a:	a0 96       	adiw	r28, 0x20	; 32
     62c:	e2 e1       	ldi	r30, 0x12	; 18
     62e:	0c 94 47 17 	jmp	0x2e8e	; 0x2e8e <__epilogue_restores__>

00000632 <__gtsf2>:
     632:	a8 e1       	ldi	r26, 0x18	; 24
     634:	b0 e0       	ldi	r27, 0x00	; 0
     636:	ef e1       	ldi	r30, 0x1F	; 31
     638:	f3 e0       	ldi	r31, 0x03	; 3
     63a:	0c 94 37 17 	jmp	0x2e6e	; 0x2e6e <__prologue_saves__+0x18>
     63e:	69 83       	std	Y+1, r22	; 0x01
     640:	7a 83       	std	Y+2, r23	; 0x02
     642:	8b 83       	std	Y+3, r24	; 0x03
     644:	9c 83       	std	Y+4, r25	; 0x04
     646:	2d 83       	std	Y+5, r18	; 0x05
     648:	3e 83       	std	Y+6, r19	; 0x06
     64a:	4f 83       	std	Y+7, r20	; 0x07
     64c:	58 87       	std	Y+8, r21	; 0x08
     64e:	89 e0       	ldi	r24, 0x09	; 9
     650:	e8 2e       	mov	r14, r24
     652:	f1 2c       	mov	r15, r1
     654:	ec 0e       	add	r14, r28
     656:	fd 1e       	adc	r15, r29
     658:	ce 01       	movw	r24, r28
     65a:	01 96       	adiw	r24, 0x01	; 1
     65c:	b7 01       	movw	r22, r14
     65e:	0e 94 d2 04 	call	0x9a4	; 0x9a4 <__unpack_f>
     662:	8e 01       	movw	r16, r28
     664:	0f 5e       	subi	r16, 0xEF	; 239
     666:	1f 4f       	sbci	r17, 0xFF	; 255
     668:	ce 01       	movw	r24, r28
     66a:	05 96       	adiw	r24, 0x05	; 5
     66c:	b8 01       	movw	r22, r16
     66e:	0e 94 d2 04 	call	0x9a4	; 0x9a4 <__unpack_f>
     672:	89 85       	ldd	r24, Y+9	; 0x09
     674:	82 30       	cpi	r24, 0x02	; 2
     676:	40 f0       	brcs	.+16     	; 0x688 <__gtsf2+0x56>
     678:	89 89       	ldd	r24, Y+17	; 0x11
     67a:	82 30       	cpi	r24, 0x02	; 2
     67c:	28 f0       	brcs	.+10     	; 0x688 <__gtsf2+0x56>
     67e:	c7 01       	movw	r24, r14
     680:	b8 01       	movw	r22, r16
     682:	0e 94 4a 05 	call	0xa94	; 0xa94 <__fpcmp_parts_f>
     686:	01 c0       	rjmp	.+2      	; 0x68a <__gtsf2+0x58>
     688:	8f ef       	ldi	r24, 0xFF	; 255
     68a:	68 96       	adiw	r28, 0x18	; 24
     68c:	e6 e0       	ldi	r30, 0x06	; 6
     68e:	0c 94 53 17 	jmp	0x2ea6	; 0x2ea6 <__epilogue_restores__+0x18>

00000692 <__gesf2>:
     692:	a8 e1       	ldi	r26, 0x18	; 24
     694:	b0 e0       	ldi	r27, 0x00	; 0
     696:	ef e4       	ldi	r30, 0x4F	; 79
     698:	f3 e0       	ldi	r31, 0x03	; 3
     69a:	0c 94 37 17 	jmp	0x2e6e	; 0x2e6e <__prologue_saves__+0x18>
     69e:	69 83       	std	Y+1, r22	; 0x01
     6a0:	7a 83       	std	Y+2, r23	; 0x02
     6a2:	8b 83       	std	Y+3, r24	; 0x03
     6a4:	9c 83       	std	Y+4, r25	; 0x04
     6a6:	2d 83       	std	Y+5, r18	; 0x05
     6a8:	3e 83       	std	Y+6, r19	; 0x06
     6aa:	4f 83       	std	Y+7, r20	; 0x07
     6ac:	58 87       	std	Y+8, r21	; 0x08
     6ae:	89 e0       	ldi	r24, 0x09	; 9
     6b0:	e8 2e       	mov	r14, r24
     6b2:	f1 2c       	mov	r15, r1
     6b4:	ec 0e       	add	r14, r28
     6b6:	fd 1e       	adc	r15, r29
     6b8:	ce 01       	movw	r24, r28
     6ba:	01 96       	adiw	r24, 0x01	; 1
     6bc:	b7 01       	movw	r22, r14
     6be:	0e 94 d2 04 	call	0x9a4	; 0x9a4 <__unpack_f>
     6c2:	8e 01       	movw	r16, r28
     6c4:	0f 5e       	subi	r16, 0xEF	; 239
     6c6:	1f 4f       	sbci	r17, 0xFF	; 255
     6c8:	ce 01       	movw	r24, r28
     6ca:	05 96       	adiw	r24, 0x05	; 5
     6cc:	b8 01       	movw	r22, r16
     6ce:	0e 94 d2 04 	call	0x9a4	; 0x9a4 <__unpack_f>
     6d2:	89 85       	ldd	r24, Y+9	; 0x09
     6d4:	82 30       	cpi	r24, 0x02	; 2
     6d6:	40 f0       	brcs	.+16     	; 0x6e8 <__gesf2+0x56>
     6d8:	89 89       	ldd	r24, Y+17	; 0x11
     6da:	82 30       	cpi	r24, 0x02	; 2
     6dc:	28 f0       	brcs	.+10     	; 0x6e8 <__gesf2+0x56>
     6de:	c7 01       	movw	r24, r14
     6e0:	b8 01       	movw	r22, r16
     6e2:	0e 94 4a 05 	call	0xa94	; 0xa94 <__fpcmp_parts_f>
     6e6:	01 c0       	rjmp	.+2      	; 0x6ea <__gesf2+0x58>
     6e8:	8f ef       	ldi	r24, 0xFF	; 255
     6ea:	68 96       	adiw	r28, 0x18	; 24
     6ec:	e6 e0       	ldi	r30, 0x06	; 6
     6ee:	0c 94 53 17 	jmp	0x2ea6	; 0x2ea6 <__epilogue_restores__+0x18>

000006f2 <__ltsf2>:
     6f2:	a8 e1       	ldi	r26, 0x18	; 24
     6f4:	b0 e0       	ldi	r27, 0x00	; 0
     6f6:	ef e7       	ldi	r30, 0x7F	; 127
     6f8:	f3 e0       	ldi	r31, 0x03	; 3
     6fa:	0c 94 37 17 	jmp	0x2e6e	; 0x2e6e <__prologue_saves__+0x18>
     6fe:	69 83       	std	Y+1, r22	; 0x01
     700:	7a 83       	std	Y+2, r23	; 0x02
     702:	8b 83       	std	Y+3, r24	; 0x03
     704:	9c 83       	std	Y+4, r25	; 0x04
     706:	2d 83       	std	Y+5, r18	; 0x05
     708:	3e 83       	std	Y+6, r19	; 0x06
     70a:	4f 83       	std	Y+7, r20	; 0x07
     70c:	58 87       	std	Y+8, r21	; 0x08
     70e:	89 e0       	ldi	r24, 0x09	; 9
     710:	e8 2e       	mov	r14, r24
     712:	f1 2c       	mov	r15, r1
     714:	ec 0e       	add	r14, r28
     716:	fd 1e       	adc	r15, r29
     718:	ce 01       	movw	r24, r28
     71a:	01 96       	adiw	r24, 0x01	; 1
     71c:	b7 01       	movw	r22, r14
     71e:	0e 94 d2 04 	call	0x9a4	; 0x9a4 <__unpack_f>
     722:	8e 01       	movw	r16, r28
     724:	0f 5e       	subi	r16, 0xEF	; 239
     726:	1f 4f       	sbci	r17, 0xFF	; 255
     728:	ce 01       	movw	r24, r28
     72a:	05 96       	adiw	r24, 0x05	; 5
     72c:	b8 01       	movw	r22, r16
     72e:	0e 94 d2 04 	call	0x9a4	; 0x9a4 <__unpack_f>
     732:	89 85       	ldd	r24, Y+9	; 0x09
     734:	82 30       	cpi	r24, 0x02	; 2
     736:	40 f0       	brcs	.+16     	; 0x748 <__ltsf2+0x56>
     738:	89 89       	ldd	r24, Y+17	; 0x11
     73a:	82 30       	cpi	r24, 0x02	; 2
     73c:	28 f0       	brcs	.+10     	; 0x748 <__ltsf2+0x56>
     73e:	c7 01       	movw	r24, r14
     740:	b8 01       	movw	r22, r16
     742:	0e 94 4a 05 	call	0xa94	; 0xa94 <__fpcmp_parts_f>
     746:	01 c0       	rjmp	.+2      	; 0x74a <__ltsf2+0x58>
     748:	81 e0       	ldi	r24, 0x01	; 1
     74a:	68 96       	adiw	r28, 0x18	; 24
     74c:	e6 e0       	ldi	r30, 0x06	; 6
     74e:	0c 94 53 17 	jmp	0x2ea6	; 0x2ea6 <__epilogue_restores__+0x18>

00000752 <__fixsfsi>:
     752:	ac e0       	ldi	r26, 0x0C	; 12
     754:	b0 e0       	ldi	r27, 0x00	; 0
     756:	ef ea       	ldi	r30, 0xAF	; 175
     758:	f3 e0       	ldi	r31, 0x03	; 3
     75a:	0c 94 3b 17 	jmp	0x2e76	; 0x2e76 <__prologue_saves__+0x20>
     75e:	69 83       	std	Y+1, r22	; 0x01
     760:	7a 83       	std	Y+2, r23	; 0x02
     762:	8b 83       	std	Y+3, r24	; 0x03
     764:	9c 83       	std	Y+4, r25	; 0x04
     766:	ce 01       	movw	r24, r28
     768:	01 96       	adiw	r24, 0x01	; 1
     76a:	be 01       	movw	r22, r28
     76c:	6b 5f       	subi	r22, 0xFB	; 251
     76e:	7f 4f       	sbci	r23, 0xFF	; 255
     770:	0e 94 d2 04 	call	0x9a4	; 0x9a4 <__unpack_f>
     774:	8d 81       	ldd	r24, Y+5	; 0x05
     776:	82 30       	cpi	r24, 0x02	; 2
     778:	61 f1       	breq	.+88     	; 0x7d2 <__fixsfsi+0x80>
     77a:	82 30       	cpi	r24, 0x02	; 2
     77c:	50 f1       	brcs	.+84     	; 0x7d2 <__fixsfsi+0x80>
     77e:	84 30       	cpi	r24, 0x04	; 4
     780:	21 f4       	brne	.+8      	; 0x78a <__fixsfsi+0x38>
     782:	8e 81       	ldd	r24, Y+6	; 0x06
     784:	88 23       	and	r24, r24
     786:	51 f1       	breq	.+84     	; 0x7dc <__fixsfsi+0x8a>
     788:	2e c0       	rjmp	.+92     	; 0x7e6 <__fixsfsi+0x94>
     78a:	2f 81       	ldd	r18, Y+7	; 0x07
     78c:	38 85       	ldd	r19, Y+8	; 0x08
     78e:	37 fd       	sbrc	r19, 7
     790:	20 c0       	rjmp	.+64     	; 0x7d2 <__fixsfsi+0x80>
     792:	6e 81       	ldd	r22, Y+6	; 0x06
     794:	2f 31       	cpi	r18, 0x1F	; 31
     796:	31 05       	cpc	r19, r1
     798:	1c f0       	brlt	.+6      	; 0x7a0 <__fixsfsi+0x4e>
     79a:	66 23       	and	r22, r22
     79c:	f9 f0       	breq	.+62     	; 0x7dc <__fixsfsi+0x8a>
     79e:	23 c0       	rjmp	.+70     	; 0x7e6 <__fixsfsi+0x94>
     7a0:	8e e1       	ldi	r24, 0x1E	; 30
     7a2:	90 e0       	ldi	r25, 0x00	; 0
     7a4:	82 1b       	sub	r24, r18
     7a6:	93 0b       	sbc	r25, r19
     7a8:	29 85       	ldd	r18, Y+9	; 0x09
     7aa:	3a 85       	ldd	r19, Y+10	; 0x0a
     7ac:	4b 85       	ldd	r20, Y+11	; 0x0b
     7ae:	5c 85       	ldd	r21, Y+12	; 0x0c
     7b0:	04 c0       	rjmp	.+8      	; 0x7ba <__fixsfsi+0x68>
     7b2:	56 95       	lsr	r21
     7b4:	47 95       	ror	r20
     7b6:	37 95       	ror	r19
     7b8:	27 95       	ror	r18
     7ba:	8a 95       	dec	r24
     7bc:	d2 f7       	brpl	.-12     	; 0x7b2 <__fixsfsi+0x60>
     7be:	66 23       	and	r22, r22
     7c0:	b1 f0       	breq	.+44     	; 0x7ee <__fixsfsi+0x9c>
     7c2:	50 95       	com	r21
     7c4:	40 95       	com	r20
     7c6:	30 95       	com	r19
     7c8:	21 95       	neg	r18
     7ca:	3f 4f       	sbci	r19, 0xFF	; 255
     7cc:	4f 4f       	sbci	r20, 0xFF	; 255
     7ce:	5f 4f       	sbci	r21, 0xFF	; 255
     7d0:	0e c0       	rjmp	.+28     	; 0x7ee <__fixsfsi+0x9c>
     7d2:	20 e0       	ldi	r18, 0x00	; 0
     7d4:	30 e0       	ldi	r19, 0x00	; 0
     7d6:	40 e0       	ldi	r20, 0x00	; 0
     7d8:	50 e0       	ldi	r21, 0x00	; 0
     7da:	09 c0       	rjmp	.+18     	; 0x7ee <__fixsfsi+0x9c>
     7dc:	2f ef       	ldi	r18, 0xFF	; 255
     7de:	3f ef       	ldi	r19, 0xFF	; 255
     7e0:	4f ef       	ldi	r20, 0xFF	; 255
     7e2:	5f e7       	ldi	r21, 0x7F	; 127
     7e4:	04 c0       	rjmp	.+8      	; 0x7ee <__fixsfsi+0x9c>
     7e6:	20 e0       	ldi	r18, 0x00	; 0
     7e8:	30 e0       	ldi	r19, 0x00	; 0
     7ea:	40 e0       	ldi	r20, 0x00	; 0
     7ec:	50 e8       	ldi	r21, 0x80	; 128
     7ee:	b9 01       	movw	r22, r18
     7f0:	ca 01       	movw	r24, r20
     7f2:	2c 96       	adiw	r28, 0x0c	; 12
     7f4:	e2 e0       	ldi	r30, 0x02	; 2
     7f6:	0c 94 57 17 	jmp	0x2eae	; 0x2eae <__epilogue_restores__+0x20>

000007fa <__pack_f>:
     7fa:	df 92       	push	r13
     7fc:	ef 92       	push	r14
     7fe:	ff 92       	push	r15
     800:	0f 93       	push	r16
     802:	1f 93       	push	r17
     804:	fc 01       	movw	r30, r24
     806:	e4 80       	ldd	r14, Z+4	; 0x04
     808:	f5 80       	ldd	r15, Z+5	; 0x05
     80a:	06 81       	ldd	r16, Z+6	; 0x06
     80c:	17 81       	ldd	r17, Z+7	; 0x07
     80e:	d1 80       	ldd	r13, Z+1	; 0x01
     810:	80 81       	ld	r24, Z
     812:	82 30       	cpi	r24, 0x02	; 2
     814:	48 f4       	brcc	.+18     	; 0x828 <__pack_f+0x2e>
     816:	80 e0       	ldi	r24, 0x00	; 0
     818:	90 e0       	ldi	r25, 0x00	; 0
     81a:	a0 e1       	ldi	r26, 0x10	; 16
     81c:	b0 e0       	ldi	r27, 0x00	; 0
     81e:	e8 2a       	or	r14, r24
     820:	f9 2a       	or	r15, r25
     822:	0a 2b       	or	r16, r26
     824:	1b 2b       	or	r17, r27
     826:	a5 c0       	rjmp	.+330    	; 0x972 <__pack_f+0x178>
     828:	84 30       	cpi	r24, 0x04	; 4
     82a:	09 f4       	brne	.+2      	; 0x82e <__pack_f+0x34>
     82c:	9f c0       	rjmp	.+318    	; 0x96c <__pack_f+0x172>
     82e:	82 30       	cpi	r24, 0x02	; 2
     830:	21 f4       	brne	.+8      	; 0x83a <__pack_f+0x40>
     832:	ee 24       	eor	r14, r14
     834:	ff 24       	eor	r15, r15
     836:	87 01       	movw	r16, r14
     838:	05 c0       	rjmp	.+10     	; 0x844 <__pack_f+0x4a>
     83a:	e1 14       	cp	r14, r1
     83c:	f1 04       	cpc	r15, r1
     83e:	01 05       	cpc	r16, r1
     840:	11 05       	cpc	r17, r1
     842:	19 f4       	brne	.+6      	; 0x84a <__pack_f+0x50>
     844:	e0 e0       	ldi	r30, 0x00	; 0
     846:	f0 e0       	ldi	r31, 0x00	; 0
     848:	96 c0       	rjmp	.+300    	; 0x976 <__pack_f+0x17c>
     84a:	62 81       	ldd	r22, Z+2	; 0x02
     84c:	73 81       	ldd	r23, Z+3	; 0x03
     84e:	9f ef       	ldi	r25, 0xFF	; 255
     850:	62 38       	cpi	r22, 0x82	; 130
     852:	79 07       	cpc	r23, r25
     854:	0c f0       	brlt	.+2      	; 0x858 <__pack_f+0x5e>
     856:	5b c0       	rjmp	.+182    	; 0x90e <__pack_f+0x114>
     858:	22 e8       	ldi	r18, 0x82	; 130
     85a:	3f ef       	ldi	r19, 0xFF	; 255
     85c:	26 1b       	sub	r18, r22
     85e:	37 0b       	sbc	r19, r23
     860:	2a 31       	cpi	r18, 0x1A	; 26
     862:	31 05       	cpc	r19, r1
     864:	2c f0       	brlt	.+10     	; 0x870 <__pack_f+0x76>
     866:	20 e0       	ldi	r18, 0x00	; 0
     868:	30 e0       	ldi	r19, 0x00	; 0
     86a:	40 e0       	ldi	r20, 0x00	; 0
     86c:	50 e0       	ldi	r21, 0x00	; 0
     86e:	2a c0       	rjmp	.+84     	; 0x8c4 <__pack_f+0xca>
     870:	b8 01       	movw	r22, r16
     872:	a7 01       	movw	r20, r14
     874:	02 2e       	mov	r0, r18
     876:	04 c0       	rjmp	.+8      	; 0x880 <__pack_f+0x86>
     878:	76 95       	lsr	r23
     87a:	67 95       	ror	r22
     87c:	57 95       	ror	r21
     87e:	47 95       	ror	r20
     880:	0a 94       	dec	r0
     882:	d2 f7       	brpl	.-12     	; 0x878 <__pack_f+0x7e>
     884:	81 e0       	ldi	r24, 0x01	; 1
     886:	90 e0       	ldi	r25, 0x00	; 0
     888:	a0 e0       	ldi	r26, 0x00	; 0
     88a:	b0 e0       	ldi	r27, 0x00	; 0
     88c:	04 c0       	rjmp	.+8      	; 0x896 <__pack_f+0x9c>
     88e:	88 0f       	add	r24, r24
     890:	99 1f       	adc	r25, r25
     892:	aa 1f       	adc	r26, r26
     894:	bb 1f       	adc	r27, r27
     896:	2a 95       	dec	r18
     898:	d2 f7       	brpl	.-12     	; 0x88e <__pack_f+0x94>
     89a:	01 97       	sbiw	r24, 0x01	; 1
     89c:	a1 09       	sbc	r26, r1
     89e:	b1 09       	sbc	r27, r1
     8a0:	8e 21       	and	r24, r14
     8a2:	9f 21       	and	r25, r15
     8a4:	a0 23       	and	r26, r16
     8a6:	b1 23       	and	r27, r17
     8a8:	00 97       	sbiw	r24, 0x00	; 0
     8aa:	a1 05       	cpc	r26, r1
     8ac:	b1 05       	cpc	r27, r1
     8ae:	21 f0       	breq	.+8      	; 0x8b8 <__pack_f+0xbe>
     8b0:	81 e0       	ldi	r24, 0x01	; 1
     8b2:	90 e0       	ldi	r25, 0x00	; 0
     8b4:	a0 e0       	ldi	r26, 0x00	; 0
     8b6:	b0 e0       	ldi	r27, 0x00	; 0
     8b8:	9a 01       	movw	r18, r20
     8ba:	ab 01       	movw	r20, r22
     8bc:	28 2b       	or	r18, r24
     8be:	39 2b       	or	r19, r25
     8c0:	4a 2b       	or	r20, r26
     8c2:	5b 2b       	or	r21, r27
     8c4:	da 01       	movw	r26, r20
     8c6:	c9 01       	movw	r24, r18
     8c8:	8f 77       	andi	r24, 0x7F	; 127
     8ca:	90 70       	andi	r25, 0x00	; 0
     8cc:	a0 70       	andi	r26, 0x00	; 0
     8ce:	b0 70       	andi	r27, 0x00	; 0
     8d0:	80 34       	cpi	r24, 0x40	; 64
     8d2:	91 05       	cpc	r25, r1
     8d4:	a1 05       	cpc	r26, r1
     8d6:	b1 05       	cpc	r27, r1
     8d8:	39 f4       	brne	.+14     	; 0x8e8 <__pack_f+0xee>
     8da:	27 ff       	sbrs	r18, 7
     8dc:	09 c0       	rjmp	.+18     	; 0x8f0 <__pack_f+0xf6>
     8de:	20 5c       	subi	r18, 0xC0	; 192
     8e0:	3f 4f       	sbci	r19, 0xFF	; 255
     8e2:	4f 4f       	sbci	r20, 0xFF	; 255
     8e4:	5f 4f       	sbci	r21, 0xFF	; 255
     8e6:	04 c0       	rjmp	.+8      	; 0x8f0 <__pack_f+0xf6>
     8e8:	21 5c       	subi	r18, 0xC1	; 193
     8ea:	3f 4f       	sbci	r19, 0xFF	; 255
     8ec:	4f 4f       	sbci	r20, 0xFF	; 255
     8ee:	5f 4f       	sbci	r21, 0xFF	; 255
     8f0:	e0 e0       	ldi	r30, 0x00	; 0
     8f2:	f0 e0       	ldi	r31, 0x00	; 0
     8f4:	20 30       	cpi	r18, 0x00	; 0
     8f6:	a0 e0       	ldi	r26, 0x00	; 0
     8f8:	3a 07       	cpc	r19, r26
     8fa:	a0 e0       	ldi	r26, 0x00	; 0
     8fc:	4a 07       	cpc	r20, r26
     8fe:	a0 e4       	ldi	r26, 0x40	; 64
     900:	5a 07       	cpc	r21, r26
     902:	10 f0       	brcs	.+4      	; 0x908 <__pack_f+0x10e>
     904:	e1 e0       	ldi	r30, 0x01	; 1
     906:	f0 e0       	ldi	r31, 0x00	; 0
     908:	79 01       	movw	r14, r18
     90a:	8a 01       	movw	r16, r20
     90c:	27 c0       	rjmp	.+78     	; 0x95c <__pack_f+0x162>
     90e:	60 38       	cpi	r22, 0x80	; 128
     910:	71 05       	cpc	r23, r1
     912:	64 f5       	brge	.+88     	; 0x96c <__pack_f+0x172>
     914:	fb 01       	movw	r30, r22
     916:	e1 58       	subi	r30, 0x81	; 129
     918:	ff 4f       	sbci	r31, 0xFF	; 255
     91a:	d8 01       	movw	r26, r16
     91c:	c7 01       	movw	r24, r14
     91e:	8f 77       	andi	r24, 0x7F	; 127
     920:	90 70       	andi	r25, 0x00	; 0
     922:	a0 70       	andi	r26, 0x00	; 0
     924:	b0 70       	andi	r27, 0x00	; 0
     926:	80 34       	cpi	r24, 0x40	; 64
     928:	91 05       	cpc	r25, r1
     92a:	a1 05       	cpc	r26, r1
     92c:	b1 05       	cpc	r27, r1
     92e:	39 f4       	brne	.+14     	; 0x93e <__pack_f+0x144>
     930:	e7 fe       	sbrs	r14, 7
     932:	0d c0       	rjmp	.+26     	; 0x94e <__pack_f+0x154>
     934:	80 e4       	ldi	r24, 0x40	; 64
     936:	90 e0       	ldi	r25, 0x00	; 0
     938:	a0 e0       	ldi	r26, 0x00	; 0
     93a:	b0 e0       	ldi	r27, 0x00	; 0
     93c:	04 c0       	rjmp	.+8      	; 0x946 <__pack_f+0x14c>
     93e:	8f e3       	ldi	r24, 0x3F	; 63
     940:	90 e0       	ldi	r25, 0x00	; 0
     942:	a0 e0       	ldi	r26, 0x00	; 0
     944:	b0 e0       	ldi	r27, 0x00	; 0
     946:	e8 0e       	add	r14, r24
     948:	f9 1e       	adc	r15, r25
     94a:	0a 1f       	adc	r16, r26
     94c:	1b 1f       	adc	r17, r27
     94e:	17 ff       	sbrs	r17, 7
     950:	05 c0       	rjmp	.+10     	; 0x95c <__pack_f+0x162>
     952:	16 95       	lsr	r17
     954:	07 95       	ror	r16
     956:	f7 94       	ror	r15
     958:	e7 94       	ror	r14
     95a:	31 96       	adiw	r30, 0x01	; 1
     95c:	87 e0       	ldi	r24, 0x07	; 7
     95e:	16 95       	lsr	r17
     960:	07 95       	ror	r16
     962:	f7 94       	ror	r15
     964:	e7 94       	ror	r14
     966:	8a 95       	dec	r24
     968:	d1 f7       	brne	.-12     	; 0x95e <__pack_f+0x164>
     96a:	05 c0       	rjmp	.+10     	; 0x976 <__pack_f+0x17c>
     96c:	ee 24       	eor	r14, r14
     96e:	ff 24       	eor	r15, r15
     970:	87 01       	movw	r16, r14
     972:	ef ef       	ldi	r30, 0xFF	; 255
     974:	f0 e0       	ldi	r31, 0x00	; 0
     976:	6e 2f       	mov	r22, r30
     978:	67 95       	ror	r22
     97a:	66 27       	eor	r22, r22
     97c:	67 95       	ror	r22
     97e:	90 2f       	mov	r25, r16
     980:	9f 77       	andi	r25, 0x7F	; 127
     982:	d7 94       	ror	r13
     984:	dd 24       	eor	r13, r13
     986:	d7 94       	ror	r13
     988:	8e 2f       	mov	r24, r30
     98a:	86 95       	lsr	r24
     98c:	49 2f       	mov	r20, r25
     98e:	46 2b       	or	r20, r22
     990:	58 2f       	mov	r21, r24
     992:	5d 29       	or	r21, r13
     994:	b7 01       	movw	r22, r14
     996:	ca 01       	movw	r24, r20
     998:	1f 91       	pop	r17
     99a:	0f 91       	pop	r16
     99c:	ff 90       	pop	r15
     99e:	ef 90       	pop	r14
     9a0:	df 90       	pop	r13
     9a2:	08 95       	ret

000009a4 <__unpack_f>:
     9a4:	fc 01       	movw	r30, r24
     9a6:	db 01       	movw	r26, r22
     9a8:	40 81       	ld	r20, Z
     9aa:	51 81       	ldd	r21, Z+1	; 0x01
     9ac:	22 81       	ldd	r18, Z+2	; 0x02
     9ae:	62 2f       	mov	r22, r18
     9b0:	6f 77       	andi	r22, 0x7F	; 127
     9b2:	70 e0       	ldi	r23, 0x00	; 0
     9b4:	22 1f       	adc	r18, r18
     9b6:	22 27       	eor	r18, r18
     9b8:	22 1f       	adc	r18, r18
     9ba:	93 81       	ldd	r25, Z+3	; 0x03
     9bc:	89 2f       	mov	r24, r25
     9be:	88 0f       	add	r24, r24
     9c0:	82 2b       	or	r24, r18
     9c2:	28 2f       	mov	r18, r24
     9c4:	30 e0       	ldi	r19, 0x00	; 0
     9c6:	99 1f       	adc	r25, r25
     9c8:	99 27       	eor	r25, r25
     9ca:	99 1f       	adc	r25, r25
     9cc:	11 96       	adiw	r26, 0x01	; 1
     9ce:	9c 93       	st	X, r25
     9d0:	11 97       	sbiw	r26, 0x01	; 1
     9d2:	21 15       	cp	r18, r1
     9d4:	31 05       	cpc	r19, r1
     9d6:	a9 f5       	brne	.+106    	; 0xa42 <__unpack_f+0x9e>
     9d8:	41 15       	cp	r20, r1
     9da:	51 05       	cpc	r21, r1
     9dc:	61 05       	cpc	r22, r1
     9de:	71 05       	cpc	r23, r1
     9e0:	11 f4       	brne	.+4      	; 0x9e6 <__unpack_f+0x42>
     9e2:	82 e0       	ldi	r24, 0x02	; 2
     9e4:	37 c0       	rjmp	.+110    	; 0xa54 <__unpack_f+0xb0>
     9e6:	82 e8       	ldi	r24, 0x82	; 130
     9e8:	9f ef       	ldi	r25, 0xFF	; 255
     9ea:	13 96       	adiw	r26, 0x03	; 3
     9ec:	9c 93       	st	X, r25
     9ee:	8e 93       	st	-X, r24
     9f0:	12 97       	sbiw	r26, 0x02	; 2
     9f2:	9a 01       	movw	r18, r20
     9f4:	ab 01       	movw	r20, r22
     9f6:	67 e0       	ldi	r22, 0x07	; 7
     9f8:	22 0f       	add	r18, r18
     9fa:	33 1f       	adc	r19, r19
     9fc:	44 1f       	adc	r20, r20
     9fe:	55 1f       	adc	r21, r21
     a00:	6a 95       	dec	r22
     a02:	d1 f7       	brne	.-12     	; 0x9f8 <__unpack_f+0x54>
     a04:	83 e0       	ldi	r24, 0x03	; 3
     a06:	8c 93       	st	X, r24
     a08:	0d c0       	rjmp	.+26     	; 0xa24 <__unpack_f+0x80>
     a0a:	22 0f       	add	r18, r18
     a0c:	33 1f       	adc	r19, r19
     a0e:	44 1f       	adc	r20, r20
     a10:	55 1f       	adc	r21, r21
     a12:	12 96       	adiw	r26, 0x02	; 2
     a14:	8d 91       	ld	r24, X+
     a16:	9c 91       	ld	r25, X
     a18:	13 97       	sbiw	r26, 0x03	; 3
     a1a:	01 97       	sbiw	r24, 0x01	; 1
     a1c:	13 96       	adiw	r26, 0x03	; 3
     a1e:	9c 93       	st	X, r25
     a20:	8e 93       	st	-X, r24
     a22:	12 97       	sbiw	r26, 0x02	; 2
     a24:	20 30       	cpi	r18, 0x00	; 0
     a26:	80 e0       	ldi	r24, 0x00	; 0
     a28:	38 07       	cpc	r19, r24
     a2a:	80 e0       	ldi	r24, 0x00	; 0
     a2c:	48 07       	cpc	r20, r24
     a2e:	80 e4       	ldi	r24, 0x40	; 64
     a30:	58 07       	cpc	r21, r24
     a32:	58 f3       	brcs	.-42     	; 0xa0a <__unpack_f+0x66>
     a34:	14 96       	adiw	r26, 0x04	; 4
     a36:	2d 93       	st	X+, r18
     a38:	3d 93       	st	X+, r19
     a3a:	4d 93       	st	X+, r20
     a3c:	5c 93       	st	X, r21
     a3e:	17 97       	sbiw	r26, 0x07	; 7
     a40:	08 95       	ret
     a42:	2f 3f       	cpi	r18, 0xFF	; 255
     a44:	31 05       	cpc	r19, r1
     a46:	79 f4       	brne	.+30     	; 0xa66 <__unpack_f+0xc2>
     a48:	41 15       	cp	r20, r1
     a4a:	51 05       	cpc	r21, r1
     a4c:	61 05       	cpc	r22, r1
     a4e:	71 05       	cpc	r23, r1
     a50:	19 f4       	brne	.+6      	; 0xa58 <__unpack_f+0xb4>
     a52:	84 e0       	ldi	r24, 0x04	; 4
     a54:	8c 93       	st	X, r24
     a56:	08 95       	ret
     a58:	64 ff       	sbrs	r22, 4
     a5a:	03 c0       	rjmp	.+6      	; 0xa62 <__unpack_f+0xbe>
     a5c:	81 e0       	ldi	r24, 0x01	; 1
     a5e:	8c 93       	st	X, r24
     a60:	12 c0       	rjmp	.+36     	; 0xa86 <__unpack_f+0xe2>
     a62:	1c 92       	st	X, r1
     a64:	10 c0       	rjmp	.+32     	; 0xa86 <__unpack_f+0xe2>
     a66:	2f 57       	subi	r18, 0x7F	; 127
     a68:	30 40       	sbci	r19, 0x00	; 0
     a6a:	13 96       	adiw	r26, 0x03	; 3
     a6c:	3c 93       	st	X, r19
     a6e:	2e 93       	st	-X, r18
     a70:	12 97       	sbiw	r26, 0x02	; 2
     a72:	83 e0       	ldi	r24, 0x03	; 3
     a74:	8c 93       	st	X, r24
     a76:	87 e0       	ldi	r24, 0x07	; 7
     a78:	44 0f       	add	r20, r20
     a7a:	55 1f       	adc	r21, r21
     a7c:	66 1f       	adc	r22, r22
     a7e:	77 1f       	adc	r23, r23
     a80:	8a 95       	dec	r24
     a82:	d1 f7       	brne	.-12     	; 0xa78 <__unpack_f+0xd4>
     a84:	70 64       	ori	r23, 0x40	; 64
     a86:	14 96       	adiw	r26, 0x04	; 4
     a88:	4d 93       	st	X+, r20
     a8a:	5d 93       	st	X+, r21
     a8c:	6d 93       	st	X+, r22
     a8e:	7c 93       	st	X, r23
     a90:	17 97       	sbiw	r26, 0x07	; 7
     a92:	08 95       	ret

00000a94 <__fpcmp_parts_f>:
     a94:	1f 93       	push	r17
     a96:	dc 01       	movw	r26, r24
     a98:	fb 01       	movw	r30, r22
     a9a:	9c 91       	ld	r25, X
     a9c:	92 30       	cpi	r25, 0x02	; 2
     a9e:	08 f4       	brcc	.+2      	; 0xaa2 <__fpcmp_parts_f+0xe>
     aa0:	47 c0       	rjmp	.+142    	; 0xb30 <__fpcmp_parts_f+0x9c>
     aa2:	80 81       	ld	r24, Z
     aa4:	82 30       	cpi	r24, 0x02	; 2
     aa6:	08 f4       	brcc	.+2      	; 0xaaa <__fpcmp_parts_f+0x16>
     aa8:	43 c0       	rjmp	.+134    	; 0xb30 <__fpcmp_parts_f+0x9c>
     aaa:	94 30       	cpi	r25, 0x04	; 4
     aac:	51 f4       	brne	.+20     	; 0xac2 <__fpcmp_parts_f+0x2e>
     aae:	11 96       	adiw	r26, 0x01	; 1
     ab0:	1c 91       	ld	r17, X
     ab2:	84 30       	cpi	r24, 0x04	; 4
     ab4:	99 f5       	brne	.+102    	; 0xb1c <__fpcmp_parts_f+0x88>
     ab6:	81 81       	ldd	r24, Z+1	; 0x01
     ab8:	68 2f       	mov	r22, r24
     aba:	70 e0       	ldi	r23, 0x00	; 0
     abc:	61 1b       	sub	r22, r17
     abe:	71 09       	sbc	r23, r1
     ac0:	3f c0       	rjmp	.+126    	; 0xb40 <__fpcmp_parts_f+0xac>
     ac2:	84 30       	cpi	r24, 0x04	; 4
     ac4:	21 f0       	breq	.+8      	; 0xace <__fpcmp_parts_f+0x3a>
     ac6:	92 30       	cpi	r25, 0x02	; 2
     ac8:	31 f4       	brne	.+12     	; 0xad6 <__fpcmp_parts_f+0x42>
     aca:	82 30       	cpi	r24, 0x02	; 2
     acc:	b9 f1       	breq	.+110    	; 0xb3c <__fpcmp_parts_f+0xa8>
     ace:	81 81       	ldd	r24, Z+1	; 0x01
     ad0:	88 23       	and	r24, r24
     ad2:	89 f1       	breq	.+98     	; 0xb36 <__fpcmp_parts_f+0xa2>
     ad4:	2d c0       	rjmp	.+90     	; 0xb30 <__fpcmp_parts_f+0x9c>
     ad6:	11 96       	adiw	r26, 0x01	; 1
     ad8:	1c 91       	ld	r17, X
     ada:	11 97       	sbiw	r26, 0x01	; 1
     adc:	82 30       	cpi	r24, 0x02	; 2
     ade:	f1 f0       	breq	.+60     	; 0xb1c <__fpcmp_parts_f+0x88>
     ae0:	81 81       	ldd	r24, Z+1	; 0x01
     ae2:	18 17       	cp	r17, r24
     ae4:	d9 f4       	brne	.+54     	; 0xb1c <__fpcmp_parts_f+0x88>
     ae6:	12 96       	adiw	r26, 0x02	; 2
     ae8:	2d 91       	ld	r18, X+
     aea:	3c 91       	ld	r19, X
     aec:	13 97       	sbiw	r26, 0x03	; 3
     aee:	82 81       	ldd	r24, Z+2	; 0x02
     af0:	93 81       	ldd	r25, Z+3	; 0x03
     af2:	82 17       	cp	r24, r18
     af4:	93 07       	cpc	r25, r19
     af6:	94 f0       	brlt	.+36     	; 0xb1c <__fpcmp_parts_f+0x88>
     af8:	28 17       	cp	r18, r24
     afa:	39 07       	cpc	r19, r25
     afc:	bc f0       	brlt	.+46     	; 0xb2c <__fpcmp_parts_f+0x98>
     afe:	14 96       	adiw	r26, 0x04	; 4
     b00:	8d 91       	ld	r24, X+
     b02:	9d 91       	ld	r25, X+
     b04:	0d 90       	ld	r0, X+
     b06:	bc 91       	ld	r27, X
     b08:	a0 2d       	mov	r26, r0
     b0a:	24 81       	ldd	r18, Z+4	; 0x04
     b0c:	35 81       	ldd	r19, Z+5	; 0x05
     b0e:	46 81       	ldd	r20, Z+6	; 0x06
     b10:	57 81       	ldd	r21, Z+7	; 0x07
     b12:	28 17       	cp	r18, r24
     b14:	39 07       	cpc	r19, r25
     b16:	4a 07       	cpc	r20, r26
     b18:	5b 07       	cpc	r21, r27
     b1a:	18 f4       	brcc	.+6      	; 0xb22 <__fpcmp_parts_f+0x8e>
     b1c:	11 23       	and	r17, r17
     b1e:	41 f0       	breq	.+16     	; 0xb30 <__fpcmp_parts_f+0x9c>
     b20:	0a c0       	rjmp	.+20     	; 0xb36 <__fpcmp_parts_f+0xa2>
     b22:	82 17       	cp	r24, r18
     b24:	93 07       	cpc	r25, r19
     b26:	a4 07       	cpc	r26, r20
     b28:	b5 07       	cpc	r27, r21
     b2a:	40 f4       	brcc	.+16     	; 0xb3c <__fpcmp_parts_f+0xa8>
     b2c:	11 23       	and	r17, r17
     b2e:	19 f0       	breq	.+6      	; 0xb36 <__fpcmp_parts_f+0xa2>
     b30:	61 e0       	ldi	r22, 0x01	; 1
     b32:	70 e0       	ldi	r23, 0x00	; 0
     b34:	05 c0       	rjmp	.+10     	; 0xb40 <__fpcmp_parts_f+0xac>
     b36:	6f ef       	ldi	r22, 0xFF	; 255
     b38:	7f ef       	ldi	r23, 0xFF	; 255
     b3a:	02 c0       	rjmp	.+4      	; 0xb40 <__fpcmp_parts_f+0xac>
     b3c:	60 e0       	ldi	r22, 0x00	; 0
     b3e:	70 e0       	ldi	r23, 0x00	; 0
     b40:	cb 01       	movw	r24, r22
     b42:	1f 91       	pop	r17
     b44:	08 95       	ret

00000b46 <TWI_init>:
 * [Args]:
 * 		ConfigPtr: pointer to the configuration set
 * [Return]: None
 -------------------------------------------*/
void TWI_init(const Twi_ConfigType* ConfigPtr)
{
     b46:	0f 93       	push	r16
     b48:	1f 93       	push	r17
     b4a:	df 93       	push	r29
     b4c:	cf 93       	push	r28
     b4e:	00 d0       	rcall	.+0      	; 0xb50 <TWI_init+0xa>
     b50:	cd b7       	in	r28, 0x3d	; 61
     b52:	de b7       	in	r29, 0x3e	; 62
     b54:	9a 83       	std	Y+2, r25	; 0x02
     b56:	89 83       	std	Y+1, r24	; 0x01
	 * - enable/ disable recognition to general calls: TWGCE
	 * ****************************************
	 */

	/*Enable TWI interface, Acknowledge*/
	TWCR |= (1<<TWEN) | (1<<TWEA);
     b58:	a6 e5       	ldi	r26, 0x56	; 86
     b5a:	b0 e0       	ldi	r27, 0x00	; 0
     b5c:	e6 e5       	ldi	r30, 0x56	; 86
     b5e:	f0 e0       	ldi	r31, 0x00	; 0
     b60:	80 81       	ld	r24, Z
     b62:	84 64       	ori	r24, 0x44	; 68
     b64:	8c 93       	st	X, r24

	/*Set the TWI own address*/
	TWAR = (TWAR & 0x01) | (ConfigPtr->twi_address << 1);
     b66:	a2 e2       	ldi	r26, 0x22	; 34
     b68:	b0 e0       	ldi	r27, 0x00	; 0
     b6a:	e2 e2       	ldi	r30, 0x22	; 34
     b6c:	f0 e0       	ldi	r31, 0x00	; 0
     b6e:	80 81       	ld	r24, Z
     b70:	28 2f       	mov	r18, r24
     b72:	21 70       	andi	r18, 0x01	; 1
     b74:	e9 81       	ldd	r30, Y+1	; 0x01
     b76:	fa 81       	ldd	r31, Y+2	; 0x02
     b78:	81 81       	ldd	r24, Z+1	; 0x01
     b7a:	88 2f       	mov	r24, r24
     b7c:	90 e0       	ldi	r25, 0x00	; 0
     b7e:	88 0f       	add	r24, r24
     b80:	99 1f       	adc	r25, r25
     b82:	82 2b       	or	r24, r18
     b84:	8c 93       	st	X, r24

	/*Configure the behavior on general calls*/
	TWAR |= ConfigPtr->e_twi_general_call_recognition;
     b86:	a2 e2       	ldi	r26, 0x22	; 34
     b88:	b0 e0       	ldi	r27, 0x00	; 0
     b8a:	e2 e2       	ldi	r30, 0x22	; 34
     b8c:	f0 e0       	ldi	r31, 0x00	; 0
     b8e:	90 81       	ld	r25, Z
     b90:	e9 81       	ldd	r30, Y+1	; 0x01
     b92:	fa 81       	ldd	r31, Y+2	; 0x02
     b94:	80 81       	ld	r24, Z
     b96:	89 2b       	or	r24, r25
     b98:	8c 93       	st	X, r24

	/*Set the prescaler (writes to TWPS bits)*/
	TWSR = (TWSR & 0xFC) | (TWI_PRESCALER_BITS);
     b9a:	a1 e2       	ldi	r26, 0x21	; 33
     b9c:	b0 e0       	ldi	r27, 0x00	; 0
     b9e:	e1 e2       	ldi	r30, 0x21	; 33
     ba0:	f0 e0       	ldi	r31, 0x00	; 0
     ba2:	80 81       	ld	r24, Z
     ba4:	8c 7f       	andi	r24, 0xFC	; 252
     ba6:	8c 93       	st	X, r24

	/*Set SCL frequency (writes to TWBR register)*/
	SET_SCL(ConfigPtr->SCL_freq_Hz);
     ba8:	00 e2       	ldi	r16, 0x20	; 32
     baa:	10 e0       	ldi	r17, 0x00	; 0
     bac:	e9 81       	ldd	r30, Y+1	; 0x01
     bae:	fa 81       	ldd	r31, Y+2	; 0x02
     bb0:	22 81       	ldd	r18, Z+2	; 0x02
     bb2:	33 81       	ldd	r19, Z+3	; 0x03
     bb4:	44 81       	ldd	r20, Z+4	; 0x04
     bb6:	55 81       	ldd	r21, Z+5	; 0x05
     bb8:	80 e0       	ldi	r24, 0x00	; 0
     bba:	92 e1       	ldi	r25, 0x12	; 18
     bbc:	aa e7       	ldi	r26, 0x7A	; 122
     bbe:	b0 e0       	ldi	r27, 0x00	; 0
     bc0:	bc 01       	movw	r22, r24
     bc2:	cd 01       	movw	r24, r26
     bc4:	0e 94 09 17 	call	0x2e12	; 0x2e12 <__udivmodsi4>
     bc8:	da 01       	movw	r26, r20
     bca:	c9 01       	movw	r24, r18
     bcc:	40 97       	sbiw	r24, 0x10	; 16
     bce:	a1 09       	sbc	r26, r1
     bd0:	b1 09       	sbc	r27, r1
     bd2:	b6 95       	lsr	r27
     bd4:	a7 95       	ror	r26
     bd6:	97 95       	ror	r25
     bd8:	87 95       	ror	r24
     bda:	f8 01       	movw	r30, r16
     bdc:	80 83       	st	Z, r24
}
     bde:	0f 90       	pop	r0
     be0:	0f 90       	pop	r0
     be2:	cf 91       	pop	r28
     be4:	df 91       	pop	r29
     be6:	1f 91       	pop	r17
     be8:	0f 91       	pop	r16
     bea:	08 95       	ret

00000bec <TWI_start>:
 * [Args]:
 * 		ConfigPtr: pointer to the configuration set
 * [Return]: None
 -------------------------------------------*/
void TWI_start()
{
     bec:	df 93       	push	r29
     bee:	cf 93       	push	r28
     bf0:	cd b7       	in	r28, 0x3d	; 61
     bf2:	de b7       	in	r29, 0x3e	; 62
	 * TWINT	TWEA	TWSTA	TWSTO	TWWC	TWEN	-	TWIE
	 * 	1		 X		 1		 0		 X		 1		0	 X
	 *************************/

	/*generate the START condition to claim the bus*/
	TWCR = (1<<TWINT) | (1<<TWSTA) | (1<<TWEN);
     bf4:	e6 e5       	ldi	r30, 0x56	; 86
     bf6:	f0 e0       	ldi	r31, 0x00	; 0
     bf8:	84 ea       	ldi	r24, 0xA4	; 164
     bfa:	80 83       	st	Z, r24

	/*Wait until TWINT flag is set. TWINT will be set after successful transmission of the START condition*/
	while(BIT_IS_CLEAR(TWCR, TWINT));
     bfc:	e6 e5       	ldi	r30, 0x56	; 86
     bfe:	f0 e0       	ldi	r31, 0x00	; 0
     c00:	80 81       	ld	r24, Z
     c02:	88 23       	and	r24, r24
     c04:	dc f7       	brge	.-10     	; 0xbfc <TWI_start+0x10>

	/*TWSTA would be cleared at the beginning of the other functions (it should be cleared after transmission of START condition since it is not cleared automatically),
	 *so there is no need to clear it here.
	 */
	//TWCR &= ~(1<<TWSTA);
}
     c06:	cf 91       	pop	r28
     c08:	df 91       	pop	r29
     c0a:	08 95       	ret

00000c0c <TWI_write>:
 * [Args]:
 * 		ConfigPtr: pointer to the configuration set
 * [Return]: None
 -------------------------------------------*/
void TWI_write(const uint8 byte_to_write) /*const since the function shouldn't try to alter the value*/
{
     c0c:	df 93       	push	r29
     c0e:	cf 93       	push	r28
     c10:	0f 92       	push	r0
     c12:	cd b7       	in	r28, 0x3d	; 61
     c14:	de b7       	in	r29, 0x3e	; 62
     c16:	89 83       	std	Y+1, r24	; 0x01
	/*write the data/SLA to the data register TWDR to be transmitted*/
	TWDR = byte_to_write;
     c18:	e3 e2       	ldi	r30, 0x23	; 35
     c1a:	f0 e0       	ldi	r31, 0x00	; 0
     c1c:	89 81       	ldd	r24, Y+1	; 0x01
     c1e:	80 83       	st	Z, r24
	/*******************
	 * TWCR should have the following value:
	 * TWINT	TWEA	TWSTA	TWSTO	TWWC	TWEN	-	TWIE
	 * 	1		 X		 0		 0		 X		 1		0	 X
	 *******************/
	TWCR = (1<<TWINT) | (1<<TWEN);
     c20:	e6 e5       	ldi	r30, 0x56	; 86
     c22:	f0 e0       	ldi	r31, 0x00	; 0
     c24:	84 e8       	ldi	r24, 0x84	; 132
     c26:	80 83       	st	Z, r24

	/*wait until TWINT indicates successful transmission of SLA+W*/
	while( BIT_IS_CLEAR(TWCR, TWINT) );
     c28:	e6 e5       	ldi	r30, 0x56	; 86
     c2a:	f0 e0       	ldi	r31, 0x00	; 0
     c2c:	80 81       	ld	r24, Z
     c2e:	88 23       	and	r24, r24
     c30:	dc f7       	brge	.-10     	; 0xc28 <TWI_write+0x1c>
}
     c32:	0f 90       	pop	r0
     c34:	cf 91       	pop	r28
     c36:	df 91       	pop	r29
     c38:	08 95       	ret

00000c3a <TWI_readWithACK>:
 * [Description]: Receives a byte and sends back an acknowledge bit
 * [Args]: None
 * [Return]: Received byte
 -------------------------------------------*/
uint8 TWI_readWithACK()
{
     c3a:	df 93       	push	r29
     c3c:	cf 93       	push	r28
     c3e:	cd b7       	in	r28, 0x3d	; 61
     c40:	de b7       	in	r29, 0x3e	; 62
	 *
	 * 	Setting TWINT clears the flag
	 * 	Setting TWEA generates the ACK pulse when data is received
	 * 	Setting TWEN enables TWI
	 *******************/
	TWCR = (1<<TWINT) | (1<<TWEA) | (1<<TWEN);
     c42:	e6 e5       	ldi	r30, 0x56	; 86
     c44:	f0 e0       	ldi	r31, 0x00	; 0
     c46:	84 ec       	ldi	r24, 0xC4	; 196
     c48:	80 83       	st	Z, r24

	/*wait until the byte is received (TWINT flag is set), then send ACK*/
	while( BIT_IS_CLEAR(TWCR, TWINT) );
     c4a:	e6 e5       	ldi	r30, 0x56	; 86
     c4c:	f0 e0       	ldi	r31, 0x00	; 0
     c4e:	80 81       	ld	r24, Z
     c50:	88 23       	and	r24, r24
     c52:	dc f7       	brge	.-10     	; 0xc4a <TWI_readWithACK+0x10>

	/*return the received byte*/
	return TWDR;
     c54:	e3 e2       	ldi	r30, 0x23	; 35
     c56:	f0 e0       	ldi	r31, 0x00	; 0
     c58:	80 81       	ld	r24, Z
}
     c5a:	cf 91       	pop	r28
     c5c:	df 91       	pop	r29
     c5e:	08 95       	ret

00000c60 <TWI_readWithNACK>:
 * [Description]: Receives a byte without sending back an acknowledge bit
 * [Args]: None
 * [Return]: Received byte
 -------------------------------------------*/
uint8 TWI_readWithNACK()
{
     c60:	df 93       	push	r29
     c62:	cf 93       	push	r28
     c64:	cd b7       	in	r28, 0x3d	; 61
     c66:	de b7       	in	r29, 0x3e	; 62
	 *
	 *	Setting TWINT clears the flag
	 * 	Clearing TWEA suppresses the generation of the ACK pulse when data is received
	 * 	Setting TWEN enables TWI
	 *******************/
	TWCR = (1<<TWINT) | (1<<TWEN);
     c68:	e6 e5       	ldi	r30, 0x56	; 86
     c6a:	f0 e0       	ldi	r31, 0x00	; 0
     c6c:	84 e8       	ldi	r24, 0x84	; 132
     c6e:	80 83       	st	Z, r24

	/*Wait until the byte is received. No ACK would be sent*/
	while( BIT_IS_CLEAR(TWCR, TWINT) );
     c70:	e6 e5       	ldi	r30, 0x56	; 86
     c72:	f0 e0       	ldi	r31, 0x00	; 0
     c74:	80 81       	ld	r24, Z
     c76:	88 23       	and	r24, r24
     c78:	dc f7       	brge	.-10     	; 0xc70 <TWI_readWithNACK+0x10>

	/*Return the received byte*/
	return TWDR;
     c7a:	e3 e2       	ldi	r30, 0x23	; 35
     c7c:	f0 e0       	ldi	r31, 0x00	; 0
     c7e:	80 81       	ld	r24, Z
}
     c80:	cf 91       	pop	r28
     c82:	df 91       	pop	r29
     c84:	08 95       	ret

00000c86 <TWI_stop>:
 * [Description]: Transmits a STOP condition
 * [Args]: None
 * [Return]: None
 -------------------------------------------*/
void TWI_stop()
{
     c86:	df 93       	push	r29
     c88:	cf 93       	push	r28
     c8a:	cd b7       	in	r28, 0x3d	; 61
     c8c:	de b7       	in	r29, 0x3e	; 62
	/*******************
	 * TWCR should have the following value:
	 * TWINT	TWEA	TWSTA	TWSTO	TWWC	TWEN	-	TWIE
	 * 	1		 X		 0		 1		 X		 1		0	 X
	 *******************/
	TWCR = (1<<TWINT) | (1<<TWSTO) | (1<<TWEN);
     c8e:	e6 e5       	ldi	r30, 0x56	; 86
     c90:	f0 e0       	ldi	r31, 0x00	; 0
     c92:	84 e9       	ldi	r24, 0x94	; 148
     c94:	80 83       	st	Z, r24

	/*TWINT flag is not set after the transmission of a STOP condition --> DON'T USE POLLING*/
}
     c96:	cf 91       	pop	r28
     c98:	df 91       	pop	r29
     c9a:	08 95       	ret

00000c9c <LCD_sendCommand>:
 * [Args]:
 * 		command: command to be sent
 * [Return]: None
 -----------------------------------------*/
void LCD_sendCommand(uint8 command)
{
     c9c:	df 93       	push	r29
     c9e:	cf 93       	push	r28
     ca0:	cd b7       	in	r28, 0x3d	; 61
     ca2:	de b7       	in	r29, 0x3e	; 62
     ca4:	e9 97       	sbiw	r28, 0x39	; 57
     ca6:	0f b6       	in	r0, 0x3f	; 63
     ca8:	f8 94       	cli
     caa:	de bf       	out	0x3e, r29	; 62
     cac:	0f be       	out	0x3f, r0	; 63
     cae:	cd bf       	out	0x3d, r28	; 61
     cb0:	89 af       	std	Y+57, r24	; 0x39
	/*clear RS to transfer instruction data*/
	CLEAR_BIT(CTRL_PORT_OUT, RS);
     cb2:	a5 e3       	ldi	r26, 0x35	; 53
     cb4:	b0 e0       	ldi	r27, 0x00	; 0
     cb6:	e5 e3       	ldi	r30, 0x35	; 53
     cb8:	f0 e0       	ldi	r31, 0x00	; 0
     cba:	80 81       	ld	r24, Z
     cbc:	8e 7f       	andi	r24, 0xFE	; 254
     cbe:	8c 93       	st	X, r24

	/*Select write mode*/
	CLEAR_BIT(CTRL_PORT_OUT, R_W);
     cc0:	a5 e3       	ldi	r26, 0x35	; 53
     cc2:	b0 e0       	ldi	r27, 0x00	; 0
     cc4:	e5 e3       	ldi	r30, 0x35	; 53
     cc6:	f0 e0       	ldi	r31, 0x00	; 0
     cc8:	80 81       	ld	r24, Z
     cca:	8d 7f       	andi	r24, 0xFD	; 253
     ccc:	8c 93       	st	X, r24
     cce:	80 e0       	ldi	r24, 0x00	; 0
     cd0:	90 e0       	ldi	r25, 0x00	; 0
     cd2:	a0 e8       	ldi	r26, 0x80	; 128
     cd4:	bf e3       	ldi	r27, 0x3F	; 63
     cd6:	8d ab       	std	Y+53, r24	; 0x35
     cd8:	9e ab       	std	Y+54, r25	; 0x36
     cda:	af ab       	std	Y+55, r26	; 0x37
     cdc:	b8 af       	std	Y+56, r27	; 0x38
 */
void
_delay_ms(double __ms)
{
	uint16_t __ticks;
	double __tmp = ((F_CPU) / 4e3) * __ms;
     cde:	6d a9       	ldd	r22, Y+53	; 0x35
     ce0:	7e a9       	ldd	r23, Y+54	; 0x36
     ce2:	8f a9       	ldd	r24, Y+55	; 0x37
     ce4:	98 ad       	ldd	r25, Y+56	; 0x38
     ce6:	20 e0       	ldi	r18, 0x00	; 0
     ce8:	30 e0       	ldi	r19, 0x00	; 0
     cea:	4a ef       	ldi	r20, 0xFA	; 250
     cec:	54 e4       	ldi	r21, 0x44	; 68
     cee:	0e 94 1f 02 	call	0x43e	; 0x43e <__mulsf3>
     cf2:	dc 01       	movw	r26, r24
     cf4:	cb 01       	movw	r24, r22
     cf6:	89 ab       	std	Y+49, r24	; 0x31
     cf8:	9a ab       	std	Y+50, r25	; 0x32
     cfa:	ab ab       	std	Y+51, r26	; 0x33
     cfc:	bc ab       	std	Y+52, r27	; 0x34
	if (__tmp < 1.0)
     cfe:	69 a9       	ldd	r22, Y+49	; 0x31
     d00:	7a a9       	ldd	r23, Y+50	; 0x32
     d02:	8b a9       	ldd	r24, Y+51	; 0x33
     d04:	9c a9       	ldd	r25, Y+52	; 0x34
     d06:	20 e0       	ldi	r18, 0x00	; 0
     d08:	30 e0       	ldi	r19, 0x00	; 0
     d0a:	40 e8       	ldi	r20, 0x80	; 128
     d0c:	5f e3       	ldi	r21, 0x3F	; 63
     d0e:	0e 94 79 03 	call	0x6f2	; 0x6f2 <__ltsf2>
     d12:	88 23       	and	r24, r24
     d14:	2c f4       	brge	.+10     	; 0xd20 <LCD_sendCommand+0x84>
		__ticks = 1;
     d16:	81 e0       	ldi	r24, 0x01	; 1
     d18:	90 e0       	ldi	r25, 0x00	; 0
     d1a:	98 ab       	std	Y+48, r25	; 0x30
     d1c:	8f a7       	std	Y+47, r24	; 0x2f
     d1e:	3f c0       	rjmp	.+126    	; 0xd9e <LCD_sendCommand+0x102>
	else if (__tmp > 65535)
     d20:	69 a9       	ldd	r22, Y+49	; 0x31
     d22:	7a a9       	ldd	r23, Y+50	; 0x32
     d24:	8b a9       	ldd	r24, Y+51	; 0x33
     d26:	9c a9       	ldd	r25, Y+52	; 0x34
     d28:	20 e0       	ldi	r18, 0x00	; 0
     d2a:	3f ef       	ldi	r19, 0xFF	; 255
     d2c:	4f e7       	ldi	r20, 0x7F	; 127
     d2e:	57 e4       	ldi	r21, 0x47	; 71
     d30:	0e 94 19 03 	call	0x632	; 0x632 <__gtsf2>
     d34:	18 16       	cp	r1, r24
     d36:	4c f5       	brge	.+82     	; 0xd8a <LCD_sendCommand+0xee>
	{
		//	__ticks = requested delay in 1/10 ms
		__ticks = (uint16_t) (__ms * 10.0);
     d38:	6d a9       	ldd	r22, Y+53	; 0x35
     d3a:	7e a9       	ldd	r23, Y+54	; 0x36
     d3c:	8f a9       	ldd	r24, Y+55	; 0x37
     d3e:	98 ad       	ldd	r25, Y+56	; 0x38
     d40:	20 e0       	ldi	r18, 0x00	; 0
     d42:	30 e0       	ldi	r19, 0x00	; 0
     d44:	40 e2       	ldi	r20, 0x20	; 32
     d46:	51 e4       	ldi	r21, 0x41	; 65
     d48:	0e 94 1f 02 	call	0x43e	; 0x43e <__mulsf3>
     d4c:	dc 01       	movw	r26, r24
     d4e:	cb 01       	movw	r24, r22
     d50:	bc 01       	movw	r22, r24
     d52:	cd 01       	movw	r24, r26
     d54:	0e 94 49 00 	call	0x92	; 0x92 <__fixunssfsi>
     d58:	dc 01       	movw	r26, r24
     d5a:	cb 01       	movw	r24, r22
     d5c:	98 ab       	std	Y+48, r25	; 0x30
     d5e:	8f a7       	std	Y+47, r24	; 0x2f
     d60:	0f c0       	rjmp	.+30     	; 0xd80 <LCD_sendCommand+0xe4>
     d62:	88 ec       	ldi	r24, 0xC8	; 200
     d64:	90 e0       	ldi	r25, 0x00	; 0
     d66:	9e a7       	std	Y+46, r25	; 0x2e
     d68:	8d a7       	std	Y+45, r24	; 0x2d
    milliseconds can be achieved.
 */
void
_delay_loop_2(uint16_t __count)
{
	__asm__ volatile (
     d6a:	8d a5       	ldd	r24, Y+45	; 0x2d
     d6c:	9e a5       	ldd	r25, Y+46	; 0x2e
     d6e:	01 97       	sbiw	r24, 0x01	; 1
     d70:	f1 f7       	brne	.-4      	; 0xd6e <LCD_sendCommand+0xd2>
     d72:	9e a7       	std	Y+46, r25	; 0x2e
     d74:	8d a7       	std	Y+45, r24	; 0x2d
		while(__ticks)
		{
			// wait 1/10 ms
			_delay_loop_2(((F_CPU) / 4e3) / 10);
			__ticks --;
     d76:	8f a5       	ldd	r24, Y+47	; 0x2f
     d78:	98 a9       	ldd	r25, Y+48	; 0x30
     d7a:	01 97       	sbiw	r24, 0x01	; 1
     d7c:	98 ab       	std	Y+48, r25	; 0x30
     d7e:	8f a7       	std	Y+47, r24	; 0x2f
		__ticks = 1;
	else if (__tmp > 65535)
	{
		//	__ticks = requested delay in 1/10 ms
		__ticks = (uint16_t) (__ms * 10.0);
		while(__ticks)
     d80:	8f a5       	ldd	r24, Y+47	; 0x2f
     d82:	98 a9       	ldd	r25, Y+48	; 0x30
     d84:	00 97       	sbiw	r24, 0x00	; 0
     d86:	69 f7       	brne	.-38     	; 0xd62 <LCD_sendCommand+0xc6>
     d88:	14 c0       	rjmp	.+40     	; 0xdb2 <LCD_sendCommand+0x116>
			__ticks --;
		}
		return;
	}
	else
		__ticks = (uint16_t)__tmp;
     d8a:	69 a9       	ldd	r22, Y+49	; 0x31
     d8c:	7a a9       	ldd	r23, Y+50	; 0x32
     d8e:	8b a9       	ldd	r24, Y+51	; 0x33
     d90:	9c a9       	ldd	r25, Y+52	; 0x34
     d92:	0e 94 49 00 	call	0x92	; 0x92 <__fixunssfsi>
     d96:	dc 01       	movw	r26, r24
     d98:	cb 01       	movw	r24, r22
     d9a:	98 ab       	std	Y+48, r25	; 0x30
     d9c:	8f a7       	std	Y+47, r24	; 0x2f
     d9e:	8f a5       	ldd	r24, Y+47	; 0x2f
     da0:	98 a9       	ldd	r25, Y+48	; 0x30
     da2:	9c a7       	std	Y+44, r25	; 0x2c
     da4:	8b a7       	std	Y+43, r24	; 0x2b
     da6:	8b a5       	ldd	r24, Y+43	; 0x2b
     da8:	9c a5       	ldd	r25, Y+44	; 0x2c
     daa:	01 97       	sbiw	r24, 0x01	; 1
     dac:	f1 f7       	brne	.-4      	; 0xdaa <LCD_sendCommand+0x10e>
     dae:	9c a7       	std	Y+44, r25	; 0x2c
     db0:	8b a7       	std	Y+43, r24	; 0x2b

	/*wait at least 50ns (tas)*/
	_delay_ms(1);

	/*enable the LCD*/
	SET_BIT(CTRL_PORT_OUT, EN);
     db2:	a5 e3       	ldi	r26, 0x35	; 53
     db4:	b0 e0       	ldi	r27, 0x00	; 0
     db6:	e5 e3       	ldi	r30, 0x35	; 53
     db8:	f0 e0       	ldi	r31, 0x00	; 0
     dba:	80 81       	ld	r24, Z
     dbc:	84 60       	ori	r24, 0x04	; 4
     dbe:	8c 93       	st	X, r24
     dc0:	80 e0       	ldi	r24, 0x00	; 0
     dc2:	90 e0       	ldi	r25, 0x00	; 0
     dc4:	a0 e8       	ldi	r26, 0x80	; 128
     dc6:	bf e3       	ldi	r27, 0x3F	; 63
     dc8:	8f a3       	std	Y+39, r24	; 0x27
     dca:	98 a7       	std	Y+40, r25	; 0x28
     dcc:	a9 a7       	std	Y+41, r26	; 0x29
     dce:	ba a7       	std	Y+42, r27	; 0x2a
 */
void
_delay_ms(double __ms)
{
	uint16_t __ticks;
	double __tmp = ((F_CPU) / 4e3) * __ms;
     dd0:	6f a1       	ldd	r22, Y+39	; 0x27
     dd2:	78 a5       	ldd	r23, Y+40	; 0x28
     dd4:	89 a5       	ldd	r24, Y+41	; 0x29
     dd6:	9a a5       	ldd	r25, Y+42	; 0x2a
     dd8:	20 e0       	ldi	r18, 0x00	; 0
     dda:	30 e0       	ldi	r19, 0x00	; 0
     ddc:	4a ef       	ldi	r20, 0xFA	; 250
     dde:	54 e4       	ldi	r21, 0x44	; 68
     de0:	0e 94 1f 02 	call	0x43e	; 0x43e <__mulsf3>
     de4:	dc 01       	movw	r26, r24
     de6:	cb 01       	movw	r24, r22
     de8:	8b a3       	std	Y+35, r24	; 0x23
     dea:	9c a3       	std	Y+36, r25	; 0x24
     dec:	ad a3       	std	Y+37, r26	; 0x25
     dee:	be a3       	std	Y+38, r27	; 0x26
	if (__tmp < 1.0)
     df0:	6b a1       	ldd	r22, Y+35	; 0x23
     df2:	7c a1       	ldd	r23, Y+36	; 0x24
     df4:	8d a1       	ldd	r24, Y+37	; 0x25
     df6:	9e a1       	ldd	r25, Y+38	; 0x26
     df8:	20 e0       	ldi	r18, 0x00	; 0
     dfa:	30 e0       	ldi	r19, 0x00	; 0
     dfc:	40 e8       	ldi	r20, 0x80	; 128
     dfe:	5f e3       	ldi	r21, 0x3F	; 63
     e00:	0e 94 79 03 	call	0x6f2	; 0x6f2 <__ltsf2>
     e04:	88 23       	and	r24, r24
     e06:	2c f4       	brge	.+10     	; 0xe12 <LCD_sendCommand+0x176>
		__ticks = 1;
     e08:	81 e0       	ldi	r24, 0x01	; 1
     e0a:	90 e0       	ldi	r25, 0x00	; 0
     e0c:	9a a3       	std	Y+34, r25	; 0x22
     e0e:	89 a3       	std	Y+33, r24	; 0x21
     e10:	3f c0       	rjmp	.+126    	; 0xe90 <LCD_sendCommand+0x1f4>
	else if (__tmp > 65535)
     e12:	6b a1       	ldd	r22, Y+35	; 0x23
     e14:	7c a1       	ldd	r23, Y+36	; 0x24
     e16:	8d a1       	ldd	r24, Y+37	; 0x25
     e18:	9e a1       	ldd	r25, Y+38	; 0x26
     e1a:	20 e0       	ldi	r18, 0x00	; 0
     e1c:	3f ef       	ldi	r19, 0xFF	; 255
     e1e:	4f e7       	ldi	r20, 0x7F	; 127
     e20:	57 e4       	ldi	r21, 0x47	; 71
     e22:	0e 94 19 03 	call	0x632	; 0x632 <__gtsf2>
     e26:	18 16       	cp	r1, r24
     e28:	4c f5       	brge	.+82     	; 0xe7c <LCD_sendCommand+0x1e0>
	{
		//	__ticks = requested delay in 1/10 ms
		__ticks = (uint16_t) (__ms * 10.0);
     e2a:	6f a1       	ldd	r22, Y+39	; 0x27
     e2c:	78 a5       	ldd	r23, Y+40	; 0x28
     e2e:	89 a5       	ldd	r24, Y+41	; 0x29
     e30:	9a a5       	ldd	r25, Y+42	; 0x2a
     e32:	20 e0       	ldi	r18, 0x00	; 0
     e34:	30 e0       	ldi	r19, 0x00	; 0
     e36:	40 e2       	ldi	r20, 0x20	; 32
     e38:	51 e4       	ldi	r21, 0x41	; 65
     e3a:	0e 94 1f 02 	call	0x43e	; 0x43e <__mulsf3>
     e3e:	dc 01       	movw	r26, r24
     e40:	cb 01       	movw	r24, r22
     e42:	bc 01       	movw	r22, r24
     e44:	cd 01       	movw	r24, r26
     e46:	0e 94 49 00 	call	0x92	; 0x92 <__fixunssfsi>
     e4a:	dc 01       	movw	r26, r24
     e4c:	cb 01       	movw	r24, r22
     e4e:	9a a3       	std	Y+34, r25	; 0x22
     e50:	89 a3       	std	Y+33, r24	; 0x21
     e52:	0f c0       	rjmp	.+30     	; 0xe72 <LCD_sendCommand+0x1d6>
     e54:	88 ec       	ldi	r24, 0xC8	; 200
     e56:	90 e0       	ldi	r25, 0x00	; 0
     e58:	98 a3       	std	Y+32, r25	; 0x20
     e5a:	8f 8f       	std	Y+31, r24	; 0x1f
     e5c:	8f 8d       	ldd	r24, Y+31	; 0x1f
     e5e:	98 a1       	ldd	r25, Y+32	; 0x20
     e60:	01 97       	sbiw	r24, 0x01	; 1
     e62:	f1 f7       	brne	.-4      	; 0xe60 <LCD_sendCommand+0x1c4>
     e64:	98 a3       	std	Y+32, r25	; 0x20
     e66:	8f 8f       	std	Y+31, r24	; 0x1f
		while(__ticks)
		{
			// wait 1/10 ms
			_delay_loop_2(((F_CPU) / 4e3) / 10);
			__ticks --;
     e68:	89 a1       	ldd	r24, Y+33	; 0x21
     e6a:	9a a1       	ldd	r25, Y+34	; 0x22
     e6c:	01 97       	sbiw	r24, 0x01	; 1
     e6e:	9a a3       	std	Y+34, r25	; 0x22
     e70:	89 a3       	std	Y+33, r24	; 0x21
		__ticks = 1;
	else if (__tmp > 65535)
	{
		//	__ticks = requested delay in 1/10 ms
		__ticks = (uint16_t) (__ms * 10.0);
		while(__ticks)
     e72:	89 a1       	ldd	r24, Y+33	; 0x21
     e74:	9a a1       	ldd	r25, Y+34	; 0x22
     e76:	00 97       	sbiw	r24, 0x00	; 0
     e78:	69 f7       	brne	.-38     	; 0xe54 <LCD_sendCommand+0x1b8>
     e7a:	14 c0       	rjmp	.+40     	; 0xea4 <LCD_sendCommand+0x208>
			__ticks --;
		}
		return;
	}
	else
		__ticks = (uint16_t)__tmp;
     e7c:	6b a1       	ldd	r22, Y+35	; 0x23
     e7e:	7c a1       	ldd	r23, Y+36	; 0x24
     e80:	8d a1       	ldd	r24, Y+37	; 0x25
     e82:	9e a1       	ldd	r25, Y+38	; 0x26
     e84:	0e 94 49 00 	call	0x92	; 0x92 <__fixunssfsi>
     e88:	dc 01       	movw	r26, r24
     e8a:	cb 01       	movw	r24, r22
     e8c:	9a a3       	std	Y+34, r25	; 0x22
     e8e:	89 a3       	std	Y+33, r24	; 0x21
     e90:	89 a1       	ldd	r24, Y+33	; 0x21
     e92:	9a a1       	ldd	r25, Y+34	; 0x22
     e94:	9e 8f       	std	Y+30, r25	; 0x1e
     e96:	8d 8f       	std	Y+29, r24	; 0x1d
     e98:	8d 8d       	ldd	r24, Y+29	; 0x1d
     e9a:	9e 8d       	ldd	r25, Y+30	; 0x1e
     e9c:	01 97       	sbiw	r24, 0x01	; 1
     e9e:	f1 f7       	brne	.-4      	; 0xe9c <LCD_sendCommand+0x200>
     ea0:	9e 8f       	std	Y+30, r25	; 0x1e
     ea2:	8d 8f       	std	Y+29, r24	; 0x1d
	/*wait at least (tpw - tdsw)ns before sending the command*/
	_delay_ms(1);

#if N_BIT_INTERFACE == 8
	/*send the command*/
	DATA_PORT_OUT = command;
     ea4:	eb e3       	ldi	r30, 0x3B	; 59
     ea6:	f0 e0       	ldi	r31, 0x00	; 0
     ea8:	89 ad       	ldd	r24, Y+57	; 0x39
     eaa:	80 83       	st	Z, r24
     eac:	80 e0       	ldi	r24, 0x00	; 0
     eae:	90 e0       	ldi	r25, 0x00	; 0
     eb0:	a0 e8       	ldi	r26, 0x80	; 128
     eb2:	bf e3       	ldi	r27, 0x3F	; 63
     eb4:	89 8f       	std	Y+25, r24	; 0x19
     eb6:	9a 8f       	std	Y+26, r25	; 0x1a
     eb8:	ab 8f       	std	Y+27, r26	; 0x1b
     eba:	bc 8f       	std	Y+28, r27	; 0x1c
 */
void
_delay_ms(double __ms)
{
	uint16_t __ticks;
	double __tmp = ((F_CPU) / 4e3) * __ms;
     ebc:	69 8d       	ldd	r22, Y+25	; 0x19
     ebe:	7a 8d       	ldd	r23, Y+26	; 0x1a
     ec0:	8b 8d       	ldd	r24, Y+27	; 0x1b
     ec2:	9c 8d       	ldd	r25, Y+28	; 0x1c
     ec4:	20 e0       	ldi	r18, 0x00	; 0
     ec6:	30 e0       	ldi	r19, 0x00	; 0
     ec8:	4a ef       	ldi	r20, 0xFA	; 250
     eca:	54 e4       	ldi	r21, 0x44	; 68
     ecc:	0e 94 1f 02 	call	0x43e	; 0x43e <__mulsf3>
     ed0:	dc 01       	movw	r26, r24
     ed2:	cb 01       	movw	r24, r22
     ed4:	8d 8b       	std	Y+21, r24	; 0x15
     ed6:	9e 8b       	std	Y+22, r25	; 0x16
     ed8:	af 8b       	std	Y+23, r26	; 0x17
     eda:	b8 8f       	std	Y+24, r27	; 0x18
	if (__tmp < 1.0)
     edc:	6d 89       	ldd	r22, Y+21	; 0x15
     ede:	7e 89       	ldd	r23, Y+22	; 0x16
     ee0:	8f 89       	ldd	r24, Y+23	; 0x17
     ee2:	98 8d       	ldd	r25, Y+24	; 0x18
     ee4:	20 e0       	ldi	r18, 0x00	; 0
     ee6:	30 e0       	ldi	r19, 0x00	; 0
     ee8:	40 e8       	ldi	r20, 0x80	; 128
     eea:	5f e3       	ldi	r21, 0x3F	; 63
     eec:	0e 94 79 03 	call	0x6f2	; 0x6f2 <__ltsf2>
     ef0:	88 23       	and	r24, r24
     ef2:	2c f4       	brge	.+10     	; 0xefe <LCD_sendCommand+0x262>
		__ticks = 1;
     ef4:	81 e0       	ldi	r24, 0x01	; 1
     ef6:	90 e0       	ldi	r25, 0x00	; 0
     ef8:	9c 8b       	std	Y+20, r25	; 0x14
     efa:	8b 8b       	std	Y+19, r24	; 0x13
     efc:	3f c0       	rjmp	.+126    	; 0xf7c <LCD_sendCommand+0x2e0>
	else if (__tmp > 65535)
     efe:	6d 89       	ldd	r22, Y+21	; 0x15
     f00:	7e 89       	ldd	r23, Y+22	; 0x16
     f02:	8f 89       	ldd	r24, Y+23	; 0x17
     f04:	98 8d       	ldd	r25, Y+24	; 0x18
     f06:	20 e0       	ldi	r18, 0x00	; 0
     f08:	3f ef       	ldi	r19, 0xFF	; 255
     f0a:	4f e7       	ldi	r20, 0x7F	; 127
     f0c:	57 e4       	ldi	r21, 0x47	; 71
     f0e:	0e 94 19 03 	call	0x632	; 0x632 <__gtsf2>
     f12:	18 16       	cp	r1, r24
     f14:	4c f5       	brge	.+82     	; 0xf68 <LCD_sendCommand+0x2cc>
	{
		//	__ticks = requested delay in 1/10 ms
		__ticks = (uint16_t) (__ms * 10.0);
     f16:	69 8d       	ldd	r22, Y+25	; 0x19
     f18:	7a 8d       	ldd	r23, Y+26	; 0x1a
     f1a:	8b 8d       	ldd	r24, Y+27	; 0x1b
     f1c:	9c 8d       	ldd	r25, Y+28	; 0x1c
     f1e:	20 e0       	ldi	r18, 0x00	; 0
     f20:	30 e0       	ldi	r19, 0x00	; 0
     f22:	40 e2       	ldi	r20, 0x20	; 32
     f24:	51 e4       	ldi	r21, 0x41	; 65
     f26:	0e 94 1f 02 	call	0x43e	; 0x43e <__mulsf3>
     f2a:	dc 01       	movw	r26, r24
     f2c:	cb 01       	movw	r24, r22
     f2e:	bc 01       	movw	r22, r24
     f30:	cd 01       	movw	r24, r26
     f32:	0e 94 49 00 	call	0x92	; 0x92 <__fixunssfsi>
     f36:	dc 01       	movw	r26, r24
     f38:	cb 01       	movw	r24, r22
     f3a:	9c 8b       	std	Y+20, r25	; 0x14
     f3c:	8b 8b       	std	Y+19, r24	; 0x13
     f3e:	0f c0       	rjmp	.+30     	; 0xf5e <LCD_sendCommand+0x2c2>
     f40:	88 ec       	ldi	r24, 0xC8	; 200
     f42:	90 e0       	ldi	r25, 0x00	; 0
     f44:	9a 8b       	std	Y+18, r25	; 0x12
     f46:	89 8b       	std	Y+17, r24	; 0x11
     f48:	89 89       	ldd	r24, Y+17	; 0x11
     f4a:	9a 89       	ldd	r25, Y+18	; 0x12
     f4c:	01 97       	sbiw	r24, 0x01	; 1
     f4e:	f1 f7       	brne	.-4      	; 0xf4c <LCD_sendCommand+0x2b0>
     f50:	9a 8b       	std	Y+18, r25	; 0x12
     f52:	89 8b       	std	Y+17, r24	; 0x11
		while(__ticks)
		{
			// wait 1/10 ms
			_delay_loop_2(((F_CPU) / 4e3) / 10);
			__ticks --;
     f54:	8b 89       	ldd	r24, Y+19	; 0x13
     f56:	9c 89       	ldd	r25, Y+20	; 0x14
     f58:	01 97       	sbiw	r24, 0x01	; 1
     f5a:	9c 8b       	std	Y+20, r25	; 0x14
     f5c:	8b 8b       	std	Y+19, r24	; 0x13
		__ticks = 1;
	else if (__tmp > 65535)
	{
		//	__ticks = requested delay in 1/10 ms
		__ticks = (uint16_t) (__ms * 10.0);
		while(__ticks)
     f5e:	8b 89       	ldd	r24, Y+19	; 0x13
     f60:	9c 89       	ldd	r25, Y+20	; 0x14
     f62:	00 97       	sbiw	r24, 0x00	; 0
     f64:	69 f7       	brne	.-38     	; 0xf40 <LCD_sendCommand+0x2a4>
     f66:	14 c0       	rjmp	.+40     	; 0xf90 <LCD_sendCommand+0x2f4>
			__ticks --;
		}
		return;
	}
	else
		__ticks = (uint16_t)__tmp;
     f68:	6d 89       	ldd	r22, Y+21	; 0x15
     f6a:	7e 89       	ldd	r23, Y+22	; 0x16
     f6c:	8f 89       	ldd	r24, Y+23	; 0x17
     f6e:	98 8d       	ldd	r25, Y+24	; 0x18
     f70:	0e 94 49 00 	call	0x92	; 0x92 <__fixunssfsi>
     f74:	dc 01       	movw	r26, r24
     f76:	cb 01       	movw	r24, r22
     f78:	9c 8b       	std	Y+20, r25	; 0x14
     f7a:	8b 8b       	std	Y+19, r24	; 0x13
     f7c:	8b 89       	ldd	r24, Y+19	; 0x13
     f7e:	9c 89       	ldd	r25, Y+20	; 0x14
     f80:	98 8b       	std	Y+16, r25	; 0x10
     f82:	8f 87       	std	Y+15, r24	; 0x0f
     f84:	8f 85       	ldd	r24, Y+15	; 0x0f
     f86:	98 89       	ldd	r25, Y+16	; 0x10
     f88:	01 97       	sbiw	r24, 0x01	; 1
     f8a:	f1 f7       	brne	.-4      	; 0xf88 <LCD_sendCommand+0x2ec>
     f8c:	98 8b       	std	Y+16, r25	; 0x10
     f8e:	8f 87       	std	Y+15, r24	; 0x0f

	/*wait at least (tdsw)ns before clearing the enable line*/
	_delay_ms(1);

	/*disable the LCD*/
	CLEAR_BIT(CTRL_PORT_OUT, EN);
     f90:	a5 e3       	ldi	r26, 0x35	; 53
     f92:	b0 e0       	ldi	r27, 0x00	; 0
     f94:	e5 e3       	ldi	r30, 0x35	; 53
     f96:	f0 e0       	ldi	r31, 0x00	; 0
     f98:	80 81       	ld	r24, Z
     f9a:	8b 7f       	andi	r24, 0xFB	; 251
     f9c:	8c 93       	st	X, r24
     f9e:	80 e0       	ldi	r24, 0x00	; 0
     fa0:	90 e0       	ldi	r25, 0x00	; 0
     fa2:	a0 e8       	ldi	r26, 0x80	; 128
     fa4:	bf e3       	ldi	r27, 0x3F	; 63
     fa6:	8b 87       	std	Y+11, r24	; 0x0b
     fa8:	9c 87       	std	Y+12, r25	; 0x0c
     faa:	ad 87       	std	Y+13, r26	; 0x0d
     fac:	be 87       	std	Y+14, r27	; 0x0e
 */
void
_delay_ms(double __ms)
{
	uint16_t __ticks;
	double __tmp = ((F_CPU) / 4e3) * __ms;
     fae:	6b 85       	ldd	r22, Y+11	; 0x0b
     fb0:	7c 85       	ldd	r23, Y+12	; 0x0c
     fb2:	8d 85       	ldd	r24, Y+13	; 0x0d
     fb4:	9e 85       	ldd	r25, Y+14	; 0x0e
     fb6:	20 e0       	ldi	r18, 0x00	; 0
     fb8:	30 e0       	ldi	r19, 0x00	; 0
     fba:	4a ef       	ldi	r20, 0xFA	; 250
     fbc:	54 e4       	ldi	r21, 0x44	; 68
     fbe:	0e 94 1f 02 	call	0x43e	; 0x43e <__mulsf3>
     fc2:	dc 01       	movw	r26, r24
     fc4:	cb 01       	movw	r24, r22
     fc6:	8f 83       	std	Y+7, r24	; 0x07
     fc8:	98 87       	std	Y+8, r25	; 0x08
     fca:	a9 87       	std	Y+9, r26	; 0x09
     fcc:	ba 87       	std	Y+10, r27	; 0x0a
	if (__tmp < 1.0)
     fce:	6f 81       	ldd	r22, Y+7	; 0x07
     fd0:	78 85       	ldd	r23, Y+8	; 0x08
     fd2:	89 85       	ldd	r24, Y+9	; 0x09
     fd4:	9a 85       	ldd	r25, Y+10	; 0x0a
     fd6:	20 e0       	ldi	r18, 0x00	; 0
     fd8:	30 e0       	ldi	r19, 0x00	; 0
     fda:	40 e8       	ldi	r20, 0x80	; 128
     fdc:	5f e3       	ldi	r21, 0x3F	; 63
     fde:	0e 94 79 03 	call	0x6f2	; 0x6f2 <__ltsf2>
     fe2:	88 23       	and	r24, r24
     fe4:	2c f4       	brge	.+10     	; 0xff0 <LCD_sendCommand+0x354>
		__ticks = 1;
     fe6:	81 e0       	ldi	r24, 0x01	; 1
     fe8:	90 e0       	ldi	r25, 0x00	; 0
     fea:	9e 83       	std	Y+6, r25	; 0x06
     fec:	8d 83       	std	Y+5, r24	; 0x05
     fee:	3f c0       	rjmp	.+126    	; 0x106e <LCD_sendCommand+0x3d2>
	else if (__tmp > 65535)
     ff0:	6f 81       	ldd	r22, Y+7	; 0x07
     ff2:	78 85       	ldd	r23, Y+8	; 0x08
     ff4:	89 85       	ldd	r24, Y+9	; 0x09
     ff6:	9a 85       	ldd	r25, Y+10	; 0x0a
     ff8:	20 e0       	ldi	r18, 0x00	; 0
     ffa:	3f ef       	ldi	r19, 0xFF	; 255
     ffc:	4f e7       	ldi	r20, 0x7F	; 127
     ffe:	57 e4       	ldi	r21, 0x47	; 71
    1000:	0e 94 19 03 	call	0x632	; 0x632 <__gtsf2>
    1004:	18 16       	cp	r1, r24
    1006:	4c f5       	brge	.+82     	; 0x105a <LCD_sendCommand+0x3be>
	{
		//	__ticks = requested delay in 1/10 ms
		__ticks = (uint16_t) (__ms * 10.0);
    1008:	6b 85       	ldd	r22, Y+11	; 0x0b
    100a:	7c 85       	ldd	r23, Y+12	; 0x0c
    100c:	8d 85       	ldd	r24, Y+13	; 0x0d
    100e:	9e 85       	ldd	r25, Y+14	; 0x0e
    1010:	20 e0       	ldi	r18, 0x00	; 0
    1012:	30 e0       	ldi	r19, 0x00	; 0
    1014:	40 e2       	ldi	r20, 0x20	; 32
    1016:	51 e4       	ldi	r21, 0x41	; 65
    1018:	0e 94 1f 02 	call	0x43e	; 0x43e <__mulsf3>
    101c:	dc 01       	movw	r26, r24
    101e:	cb 01       	movw	r24, r22
    1020:	bc 01       	movw	r22, r24
    1022:	cd 01       	movw	r24, r26
    1024:	0e 94 49 00 	call	0x92	; 0x92 <__fixunssfsi>
    1028:	dc 01       	movw	r26, r24
    102a:	cb 01       	movw	r24, r22
    102c:	9e 83       	std	Y+6, r25	; 0x06
    102e:	8d 83       	std	Y+5, r24	; 0x05
    1030:	0f c0       	rjmp	.+30     	; 0x1050 <LCD_sendCommand+0x3b4>
    1032:	88 ec       	ldi	r24, 0xC8	; 200
    1034:	90 e0       	ldi	r25, 0x00	; 0
    1036:	9c 83       	std	Y+4, r25	; 0x04
    1038:	8b 83       	std	Y+3, r24	; 0x03
    103a:	8b 81       	ldd	r24, Y+3	; 0x03
    103c:	9c 81       	ldd	r25, Y+4	; 0x04
    103e:	01 97       	sbiw	r24, 0x01	; 1
    1040:	f1 f7       	brne	.-4      	; 0x103e <LCD_sendCommand+0x3a2>
    1042:	9c 83       	std	Y+4, r25	; 0x04
    1044:	8b 83       	std	Y+3, r24	; 0x03
		while(__ticks)
		{
			// wait 1/10 ms
			_delay_loop_2(((F_CPU) / 4e3) / 10);
			__ticks --;
    1046:	8d 81       	ldd	r24, Y+5	; 0x05
    1048:	9e 81       	ldd	r25, Y+6	; 0x06
    104a:	01 97       	sbiw	r24, 0x01	; 1
    104c:	9e 83       	std	Y+6, r25	; 0x06
    104e:	8d 83       	std	Y+5, r24	; 0x05
		__ticks = 1;
	else if (__tmp > 65535)
	{
		//	__ticks = requested delay in 1/10 ms
		__ticks = (uint16_t) (__ms * 10.0);
		while(__ticks)
    1050:	8d 81       	ldd	r24, Y+5	; 0x05
    1052:	9e 81       	ldd	r25, Y+6	; 0x06
    1054:	00 97       	sbiw	r24, 0x00	; 0
    1056:	69 f7       	brne	.-38     	; 0x1032 <LCD_sendCommand+0x396>
    1058:	14 c0       	rjmp	.+40     	; 0x1082 <LCD_sendCommand+0x3e6>
			__ticks --;
		}
		return;
	}
	else
		__ticks = (uint16_t)__tmp;
    105a:	6f 81       	ldd	r22, Y+7	; 0x07
    105c:	78 85       	ldd	r23, Y+8	; 0x08
    105e:	89 85       	ldd	r24, Y+9	; 0x09
    1060:	9a 85       	ldd	r25, Y+10	; 0x0a
    1062:	0e 94 49 00 	call	0x92	; 0x92 <__fixunssfsi>
    1066:	dc 01       	movw	r26, r24
    1068:	cb 01       	movw	r24, r22
    106a:	9e 83       	std	Y+6, r25	; 0x06
    106c:	8d 83       	std	Y+5, r24	; 0x05
    106e:	8d 81       	ldd	r24, Y+5	; 0x05
    1070:	9e 81       	ldd	r25, Y+6	; 0x06
    1072:	9a 83       	std	Y+2, r25	; 0x02
    1074:	89 83       	std	Y+1, r24	; 0x01
    1076:	89 81       	ldd	r24, Y+1	; 0x01
    1078:	9a 81       	ldd	r25, Y+2	; 0x02
    107a:	01 97       	sbiw	r24, 0x01	; 1
    107c:	f1 f7       	brne	.-4      	; 0x107a <LCD_sendCommand+0x3de>
    107e:	9a 83       	std	Y+2, r25	; 0x02
    1080:	89 83       	std	Y+1, r24	; 0x01

	/*Wait at least (th)ns while holding the data on the line after disabling the LCD*/
	_delay_ms(1);

}
    1082:	e9 96       	adiw	r28, 0x39	; 57
    1084:	0f b6       	in	r0, 0x3f	; 63
    1086:	f8 94       	cli
    1088:	de bf       	out	0x3e, r29	; 62
    108a:	0f be       	out	0x3f, r0	; 63
    108c:	cd bf       	out	0x3d, r28	; 61
    108e:	cf 91       	pop	r28
    1090:	df 91       	pop	r29
    1092:	08 95       	ret

00001094 <LCD_displayCharacter>:
 * [Args]:
 * 		character: character to be displayed
 * [Return]: None
 -----------------------------------------*/
void LCD_displayCharacter(uint8 character)
{
    1094:	df 93       	push	r29
    1096:	cf 93       	push	r28
    1098:	cd b7       	in	r28, 0x3d	; 61
    109a:	de b7       	in	r29, 0x3e	; 62
    109c:	e9 97       	sbiw	r28, 0x39	; 57
    109e:	0f b6       	in	r0, 0x3f	; 63
    10a0:	f8 94       	cli
    10a2:	de bf       	out	0x3e, r29	; 62
    10a4:	0f be       	out	0x3f, r0	; 63
    10a6:	cd bf       	out	0x3d, r28	; 61
    10a8:	89 af       	std	Y+57, r24	; 0x39
	/*Set RS to transfer display data*/
	SET_BIT(CTRL_PORT_OUT, RS);
    10aa:	a5 e3       	ldi	r26, 0x35	; 53
    10ac:	b0 e0       	ldi	r27, 0x00	; 0
    10ae:	e5 e3       	ldi	r30, 0x35	; 53
    10b0:	f0 e0       	ldi	r31, 0x00	; 0
    10b2:	80 81       	ld	r24, Z
    10b4:	81 60       	ori	r24, 0x01	; 1
    10b6:	8c 93       	st	X, r24

	/*Select write mode*/
	CLEAR_BIT(CTRL_PORT_OUT, R_W);
    10b8:	a5 e3       	ldi	r26, 0x35	; 53
    10ba:	b0 e0       	ldi	r27, 0x00	; 0
    10bc:	e5 e3       	ldi	r30, 0x35	; 53
    10be:	f0 e0       	ldi	r31, 0x00	; 0
    10c0:	80 81       	ld	r24, Z
    10c2:	8d 7f       	andi	r24, 0xFD	; 253
    10c4:	8c 93       	st	X, r24
    10c6:	80 e0       	ldi	r24, 0x00	; 0
    10c8:	90 e0       	ldi	r25, 0x00	; 0
    10ca:	a0 e8       	ldi	r26, 0x80	; 128
    10cc:	bf e3       	ldi	r27, 0x3F	; 63
    10ce:	8d ab       	std	Y+53, r24	; 0x35
    10d0:	9e ab       	std	Y+54, r25	; 0x36
    10d2:	af ab       	std	Y+55, r26	; 0x37
    10d4:	b8 af       	std	Y+56, r27	; 0x38
 */
void
_delay_ms(double __ms)
{
	uint16_t __ticks;
	double __tmp = ((F_CPU) / 4e3) * __ms;
    10d6:	6d a9       	ldd	r22, Y+53	; 0x35
    10d8:	7e a9       	ldd	r23, Y+54	; 0x36
    10da:	8f a9       	ldd	r24, Y+55	; 0x37
    10dc:	98 ad       	ldd	r25, Y+56	; 0x38
    10de:	20 e0       	ldi	r18, 0x00	; 0
    10e0:	30 e0       	ldi	r19, 0x00	; 0
    10e2:	4a ef       	ldi	r20, 0xFA	; 250
    10e4:	54 e4       	ldi	r21, 0x44	; 68
    10e6:	0e 94 1f 02 	call	0x43e	; 0x43e <__mulsf3>
    10ea:	dc 01       	movw	r26, r24
    10ec:	cb 01       	movw	r24, r22
    10ee:	89 ab       	std	Y+49, r24	; 0x31
    10f0:	9a ab       	std	Y+50, r25	; 0x32
    10f2:	ab ab       	std	Y+51, r26	; 0x33
    10f4:	bc ab       	std	Y+52, r27	; 0x34
	if (__tmp < 1.0)
    10f6:	69 a9       	ldd	r22, Y+49	; 0x31
    10f8:	7a a9       	ldd	r23, Y+50	; 0x32
    10fa:	8b a9       	ldd	r24, Y+51	; 0x33
    10fc:	9c a9       	ldd	r25, Y+52	; 0x34
    10fe:	20 e0       	ldi	r18, 0x00	; 0
    1100:	30 e0       	ldi	r19, 0x00	; 0
    1102:	40 e8       	ldi	r20, 0x80	; 128
    1104:	5f e3       	ldi	r21, 0x3F	; 63
    1106:	0e 94 79 03 	call	0x6f2	; 0x6f2 <__ltsf2>
    110a:	88 23       	and	r24, r24
    110c:	2c f4       	brge	.+10     	; 0x1118 <LCD_displayCharacter+0x84>
		__ticks = 1;
    110e:	81 e0       	ldi	r24, 0x01	; 1
    1110:	90 e0       	ldi	r25, 0x00	; 0
    1112:	98 ab       	std	Y+48, r25	; 0x30
    1114:	8f a7       	std	Y+47, r24	; 0x2f
    1116:	3f c0       	rjmp	.+126    	; 0x1196 <LCD_displayCharacter+0x102>
	else if (__tmp > 65535)
    1118:	69 a9       	ldd	r22, Y+49	; 0x31
    111a:	7a a9       	ldd	r23, Y+50	; 0x32
    111c:	8b a9       	ldd	r24, Y+51	; 0x33
    111e:	9c a9       	ldd	r25, Y+52	; 0x34
    1120:	20 e0       	ldi	r18, 0x00	; 0
    1122:	3f ef       	ldi	r19, 0xFF	; 255
    1124:	4f e7       	ldi	r20, 0x7F	; 127
    1126:	57 e4       	ldi	r21, 0x47	; 71
    1128:	0e 94 19 03 	call	0x632	; 0x632 <__gtsf2>
    112c:	18 16       	cp	r1, r24
    112e:	4c f5       	brge	.+82     	; 0x1182 <LCD_displayCharacter+0xee>
	{
		//	__ticks = requested delay in 1/10 ms
		__ticks = (uint16_t) (__ms * 10.0);
    1130:	6d a9       	ldd	r22, Y+53	; 0x35
    1132:	7e a9       	ldd	r23, Y+54	; 0x36
    1134:	8f a9       	ldd	r24, Y+55	; 0x37
    1136:	98 ad       	ldd	r25, Y+56	; 0x38
    1138:	20 e0       	ldi	r18, 0x00	; 0
    113a:	30 e0       	ldi	r19, 0x00	; 0
    113c:	40 e2       	ldi	r20, 0x20	; 32
    113e:	51 e4       	ldi	r21, 0x41	; 65
    1140:	0e 94 1f 02 	call	0x43e	; 0x43e <__mulsf3>
    1144:	dc 01       	movw	r26, r24
    1146:	cb 01       	movw	r24, r22
    1148:	bc 01       	movw	r22, r24
    114a:	cd 01       	movw	r24, r26
    114c:	0e 94 49 00 	call	0x92	; 0x92 <__fixunssfsi>
    1150:	dc 01       	movw	r26, r24
    1152:	cb 01       	movw	r24, r22
    1154:	98 ab       	std	Y+48, r25	; 0x30
    1156:	8f a7       	std	Y+47, r24	; 0x2f
    1158:	0f c0       	rjmp	.+30     	; 0x1178 <LCD_displayCharacter+0xe4>
    115a:	88 ec       	ldi	r24, 0xC8	; 200
    115c:	90 e0       	ldi	r25, 0x00	; 0
    115e:	9e a7       	std	Y+46, r25	; 0x2e
    1160:	8d a7       	std	Y+45, r24	; 0x2d
    1162:	8d a5       	ldd	r24, Y+45	; 0x2d
    1164:	9e a5       	ldd	r25, Y+46	; 0x2e
    1166:	01 97       	sbiw	r24, 0x01	; 1
    1168:	f1 f7       	brne	.-4      	; 0x1166 <LCD_displayCharacter+0xd2>
    116a:	9e a7       	std	Y+46, r25	; 0x2e
    116c:	8d a7       	std	Y+45, r24	; 0x2d
		while(__ticks)
		{
			// wait 1/10 ms
			_delay_loop_2(((F_CPU) / 4e3) / 10);
			__ticks --;
    116e:	8f a5       	ldd	r24, Y+47	; 0x2f
    1170:	98 a9       	ldd	r25, Y+48	; 0x30
    1172:	01 97       	sbiw	r24, 0x01	; 1
    1174:	98 ab       	std	Y+48, r25	; 0x30
    1176:	8f a7       	std	Y+47, r24	; 0x2f
		__ticks = 1;
	else if (__tmp > 65535)
	{
		//	__ticks = requested delay in 1/10 ms
		__ticks = (uint16_t) (__ms * 10.0);
		while(__ticks)
    1178:	8f a5       	ldd	r24, Y+47	; 0x2f
    117a:	98 a9       	ldd	r25, Y+48	; 0x30
    117c:	00 97       	sbiw	r24, 0x00	; 0
    117e:	69 f7       	brne	.-38     	; 0x115a <LCD_displayCharacter+0xc6>
    1180:	14 c0       	rjmp	.+40     	; 0x11aa <LCD_displayCharacter+0x116>
			__ticks --;
		}
		return;
	}
	else
		__ticks = (uint16_t)__tmp;
    1182:	69 a9       	ldd	r22, Y+49	; 0x31
    1184:	7a a9       	ldd	r23, Y+50	; 0x32
    1186:	8b a9       	ldd	r24, Y+51	; 0x33
    1188:	9c a9       	ldd	r25, Y+52	; 0x34
    118a:	0e 94 49 00 	call	0x92	; 0x92 <__fixunssfsi>
    118e:	dc 01       	movw	r26, r24
    1190:	cb 01       	movw	r24, r22
    1192:	98 ab       	std	Y+48, r25	; 0x30
    1194:	8f a7       	std	Y+47, r24	; 0x2f
    1196:	8f a5       	ldd	r24, Y+47	; 0x2f
    1198:	98 a9       	ldd	r25, Y+48	; 0x30
    119a:	9c a7       	std	Y+44, r25	; 0x2c
    119c:	8b a7       	std	Y+43, r24	; 0x2b
    119e:	8b a5       	ldd	r24, Y+43	; 0x2b
    11a0:	9c a5       	ldd	r25, Y+44	; 0x2c
    11a2:	01 97       	sbiw	r24, 0x01	; 1
    11a4:	f1 f7       	brne	.-4      	; 0x11a2 <LCD_displayCharacter+0x10e>
    11a6:	9c a7       	std	Y+44, r25	; 0x2c
    11a8:	8b a7       	std	Y+43, r24	; 0x2b

	/*wait at least 50ns (address setup time)*/
	_delay_ms(1);

	/*enable the LCD*/
	SET_BIT(CTRL_PORT_OUT, EN);
    11aa:	a5 e3       	ldi	r26, 0x35	; 53
    11ac:	b0 e0       	ldi	r27, 0x00	; 0
    11ae:	e5 e3       	ldi	r30, 0x35	; 53
    11b0:	f0 e0       	ldi	r31, 0x00	; 0
    11b2:	80 81       	ld	r24, Z
    11b4:	84 60       	ori	r24, 0x04	; 4
    11b6:	8c 93       	st	X, r24
    11b8:	80 e0       	ldi	r24, 0x00	; 0
    11ba:	90 e0       	ldi	r25, 0x00	; 0
    11bc:	a0 e8       	ldi	r26, 0x80	; 128
    11be:	bf e3       	ldi	r27, 0x3F	; 63
    11c0:	8f a3       	std	Y+39, r24	; 0x27
    11c2:	98 a7       	std	Y+40, r25	; 0x28
    11c4:	a9 a7       	std	Y+41, r26	; 0x29
    11c6:	ba a7       	std	Y+42, r27	; 0x2a
 */
void
_delay_ms(double __ms)
{
	uint16_t __ticks;
	double __tmp = ((F_CPU) / 4e3) * __ms;
    11c8:	6f a1       	ldd	r22, Y+39	; 0x27
    11ca:	78 a5       	ldd	r23, Y+40	; 0x28
    11cc:	89 a5       	ldd	r24, Y+41	; 0x29
    11ce:	9a a5       	ldd	r25, Y+42	; 0x2a
    11d0:	20 e0       	ldi	r18, 0x00	; 0
    11d2:	30 e0       	ldi	r19, 0x00	; 0
    11d4:	4a ef       	ldi	r20, 0xFA	; 250
    11d6:	54 e4       	ldi	r21, 0x44	; 68
    11d8:	0e 94 1f 02 	call	0x43e	; 0x43e <__mulsf3>
    11dc:	dc 01       	movw	r26, r24
    11de:	cb 01       	movw	r24, r22
    11e0:	8b a3       	std	Y+35, r24	; 0x23
    11e2:	9c a3       	std	Y+36, r25	; 0x24
    11e4:	ad a3       	std	Y+37, r26	; 0x25
    11e6:	be a3       	std	Y+38, r27	; 0x26
	if (__tmp < 1.0)
    11e8:	6b a1       	ldd	r22, Y+35	; 0x23
    11ea:	7c a1       	ldd	r23, Y+36	; 0x24
    11ec:	8d a1       	ldd	r24, Y+37	; 0x25
    11ee:	9e a1       	ldd	r25, Y+38	; 0x26
    11f0:	20 e0       	ldi	r18, 0x00	; 0
    11f2:	30 e0       	ldi	r19, 0x00	; 0
    11f4:	40 e8       	ldi	r20, 0x80	; 128
    11f6:	5f e3       	ldi	r21, 0x3F	; 63
    11f8:	0e 94 79 03 	call	0x6f2	; 0x6f2 <__ltsf2>
    11fc:	88 23       	and	r24, r24
    11fe:	2c f4       	brge	.+10     	; 0x120a <LCD_displayCharacter+0x176>
		__ticks = 1;
    1200:	81 e0       	ldi	r24, 0x01	; 1
    1202:	90 e0       	ldi	r25, 0x00	; 0
    1204:	9a a3       	std	Y+34, r25	; 0x22
    1206:	89 a3       	std	Y+33, r24	; 0x21
    1208:	3f c0       	rjmp	.+126    	; 0x1288 <LCD_displayCharacter+0x1f4>
	else if (__tmp > 65535)
    120a:	6b a1       	ldd	r22, Y+35	; 0x23
    120c:	7c a1       	ldd	r23, Y+36	; 0x24
    120e:	8d a1       	ldd	r24, Y+37	; 0x25
    1210:	9e a1       	ldd	r25, Y+38	; 0x26
    1212:	20 e0       	ldi	r18, 0x00	; 0
    1214:	3f ef       	ldi	r19, 0xFF	; 255
    1216:	4f e7       	ldi	r20, 0x7F	; 127
    1218:	57 e4       	ldi	r21, 0x47	; 71
    121a:	0e 94 19 03 	call	0x632	; 0x632 <__gtsf2>
    121e:	18 16       	cp	r1, r24
    1220:	4c f5       	brge	.+82     	; 0x1274 <LCD_displayCharacter+0x1e0>
	{
		//	__ticks = requested delay in 1/10 ms
		__ticks = (uint16_t) (__ms * 10.0);
    1222:	6f a1       	ldd	r22, Y+39	; 0x27
    1224:	78 a5       	ldd	r23, Y+40	; 0x28
    1226:	89 a5       	ldd	r24, Y+41	; 0x29
    1228:	9a a5       	ldd	r25, Y+42	; 0x2a
    122a:	20 e0       	ldi	r18, 0x00	; 0
    122c:	30 e0       	ldi	r19, 0x00	; 0
    122e:	40 e2       	ldi	r20, 0x20	; 32
    1230:	51 e4       	ldi	r21, 0x41	; 65
    1232:	0e 94 1f 02 	call	0x43e	; 0x43e <__mulsf3>
    1236:	dc 01       	movw	r26, r24
    1238:	cb 01       	movw	r24, r22
    123a:	bc 01       	movw	r22, r24
    123c:	cd 01       	movw	r24, r26
    123e:	0e 94 49 00 	call	0x92	; 0x92 <__fixunssfsi>
    1242:	dc 01       	movw	r26, r24
    1244:	cb 01       	movw	r24, r22
    1246:	9a a3       	std	Y+34, r25	; 0x22
    1248:	89 a3       	std	Y+33, r24	; 0x21
    124a:	0f c0       	rjmp	.+30     	; 0x126a <LCD_displayCharacter+0x1d6>
    124c:	88 ec       	ldi	r24, 0xC8	; 200
    124e:	90 e0       	ldi	r25, 0x00	; 0
    1250:	98 a3       	std	Y+32, r25	; 0x20
    1252:	8f 8f       	std	Y+31, r24	; 0x1f
    1254:	8f 8d       	ldd	r24, Y+31	; 0x1f
    1256:	98 a1       	ldd	r25, Y+32	; 0x20
    1258:	01 97       	sbiw	r24, 0x01	; 1
    125a:	f1 f7       	brne	.-4      	; 0x1258 <LCD_displayCharacter+0x1c4>
    125c:	98 a3       	std	Y+32, r25	; 0x20
    125e:	8f 8f       	std	Y+31, r24	; 0x1f
		while(__ticks)
		{
			// wait 1/10 ms
			_delay_loop_2(((F_CPU) / 4e3) / 10);
			__ticks --;
    1260:	89 a1       	ldd	r24, Y+33	; 0x21
    1262:	9a a1       	ldd	r25, Y+34	; 0x22
    1264:	01 97       	sbiw	r24, 0x01	; 1
    1266:	9a a3       	std	Y+34, r25	; 0x22
    1268:	89 a3       	std	Y+33, r24	; 0x21
		__ticks = 1;
	else if (__tmp > 65535)
	{
		//	__ticks = requested delay in 1/10 ms
		__ticks = (uint16_t) (__ms * 10.0);
		while(__ticks)
    126a:	89 a1       	ldd	r24, Y+33	; 0x21
    126c:	9a a1       	ldd	r25, Y+34	; 0x22
    126e:	00 97       	sbiw	r24, 0x00	; 0
    1270:	69 f7       	brne	.-38     	; 0x124c <LCD_displayCharacter+0x1b8>
    1272:	14 c0       	rjmp	.+40     	; 0x129c <LCD_displayCharacter+0x208>
			__ticks --;
		}
		return;
	}
	else
		__ticks = (uint16_t)__tmp;
    1274:	6b a1       	ldd	r22, Y+35	; 0x23
    1276:	7c a1       	ldd	r23, Y+36	; 0x24
    1278:	8d a1       	ldd	r24, Y+37	; 0x25
    127a:	9e a1       	ldd	r25, Y+38	; 0x26
    127c:	0e 94 49 00 	call	0x92	; 0x92 <__fixunssfsi>
    1280:	dc 01       	movw	r26, r24
    1282:	cb 01       	movw	r24, r22
    1284:	9a a3       	std	Y+34, r25	; 0x22
    1286:	89 a3       	std	Y+33, r24	; 0x21
    1288:	89 a1       	ldd	r24, Y+33	; 0x21
    128a:	9a a1       	ldd	r25, Y+34	; 0x22
    128c:	9e 8f       	std	Y+30, r25	; 0x1e
    128e:	8d 8f       	std	Y+29, r24	; 0x1d
    1290:	8d 8d       	ldd	r24, Y+29	; 0x1d
    1292:	9e 8d       	ldd	r25, Y+30	; 0x1e
    1294:	01 97       	sbiw	r24, 0x01	; 1
    1296:	f1 f7       	brne	.-4      	; 0x1294 <LCD_displayCharacter+0x200>
    1298:	9e 8f       	std	Y+30, r25	; 0x1e
    129a:	8d 8f       	std	Y+29, r24	; 0x1d
	/*wait at least (tpw - tdsw)ns before sending the command*/
	_delay_ms(1);

#if N_BIT_INTERFACE == 8
	/*send the command*/
	DATA_PORT_OUT = character;
    129c:	eb e3       	ldi	r30, 0x3B	; 59
    129e:	f0 e0       	ldi	r31, 0x00	; 0
    12a0:	89 ad       	ldd	r24, Y+57	; 0x39
    12a2:	80 83       	st	Z, r24
    12a4:	80 e0       	ldi	r24, 0x00	; 0
    12a6:	90 e0       	ldi	r25, 0x00	; 0
    12a8:	a0 e8       	ldi	r26, 0x80	; 128
    12aa:	bf e3       	ldi	r27, 0x3F	; 63
    12ac:	89 8f       	std	Y+25, r24	; 0x19
    12ae:	9a 8f       	std	Y+26, r25	; 0x1a
    12b0:	ab 8f       	std	Y+27, r26	; 0x1b
    12b2:	bc 8f       	std	Y+28, r27	; 0x1c
 */
void
_delay_ms(double __ms)
{
	uint16_t __ticks;
	double __tmp = ((F_CPU) / 4e3) * __ms;
    12b4:	69 8d       	ldd	r22, Y+25	; 0x19
    12b6:	7a 8d       	ldd	r23, Y+26	; 0x1a
    12b8:	8b 8d       	ldd	r24, Y+27	; 0x1b
    12ba:	9c 8d       	ldd	r25, Y+28	; 0x1c
    12bc:	20 e0       	ldi	r18, 0x00	; 0
    12be:	30 e0       	ldi	r19, 0x00	; 0
    12c0:	4a ef       	ldi	r20, 0xFA	; 250
    12c2:	54 e4       	ldi	r21, 0x44	; 68
    12c4:	0e 94 1f 02 	call	0x43e	; 0x43e <__mulsf3>
    12c8:	dc 01       	movw	r26, r24
    12ca:	cb 01       	movw	r24, r22
    12cc:	8d 8b       	std	Y+21, r24	; 0x15
    12ce:	9e 8b       	std	Y+22, r25	; 0x16
    12d0:	af 8b       	std	Y+23, r26	; 0x17
    12d2:	b8 8f       	std	Y+24, r27	; 0x18
	if (__tmp < 1.0)
    12d4:	6d 89       	ldd	r22, Y+21	; 0x15
    12d6:	7e 89       	ldd	r23, Y+22	; 0x16
    12d8:	8f 89       	ldd	r24, Y+23	; 0x17
    12da:	98 8d       	ldd	r25, Y+24	; 0x18
    12dc:	20 e0       	ldi	r18, 0x00	; 0
    12de:	30 e0       	ldi	r19, 0x00	; 0
    12e0:	40 e8       	ldi	r20, 0x80	; 128
    12e2:	5f e3       	ldi	r21, 0x3F	; 63
    12e4:	0e 94 79 03 	call	0x6f2	; 0x6f2 <__ltsf2>
    12e8:	88 23       	and	r24, r24
    12ea:	2c f4       	brge	.+10     	; 0x12f6 <LCD_displayCharacter+0x262>
		__ticks = 1;
    12ec:	81 e0       	ldi	r24, 0x01	; 1
    12ee:	90 e0       	ldi	r25, 0x00	; 0
    12f0:	9c 8b       	std	Y+20, r25	; 0x14
    12f2:	8b 8b       	std	Y+19, r24	; 0x13
    12f4:	3f c0       	rjmp	.+126    	; 0x1374 <LCD_displayCharacter+0x2e0>
	else if (__tmp > 65535)
    12f6:	6d 89       	ldd	r22, Y+21	; 0x15
    12f8:	7e 89       	ldd	r23, Y+22	; 0x16
    12fa:	8f 89       	ldd	r24, Y+23	; 0x17
    12fc:	98 8d       	ldd	r25, Y+24	; 0x18
    12fe:	20 e0       	ldi	r18, 0x00	; 0
    1300:	3f ef       	ldi	r19, 0xFF	; 255
    1302:	4f e7       	ldi	r20, 0x7F	; 127
    1304:	57 e4       	ldi	r21, 0x47	; 71
    1306:	0e 94 19 03 	call	0x632	; 0x632 <__gtsf2>
    130a:	18 16       	cp	r1, r24
    130c:	4c f5       	brge	.+82     	; 0x1360 <LCD_displayCharacter+0x2cc>
	{
		//	__ticks = requested delay in 1/10 ms
		__ticks = (uint16_t) (__ms * 10.0);
    130e:	69 8d       	ldd	r22, Y+25	; 0x19
    1310:	7a 8d       	ldd	r23, Y+26	; 0x1a
    1312:	8b 8d       	ldd	r24, Y+27	; 0x1b
    1314:	9c 8d       	ldd	r25, Y+28	; 0x1c
    1316:	20 e0       	ldi	r18, 0x00	; 0
    1318:	30 e0       	ldi	r19, 0x00	; 0
    131a:	40 e2       	ldi	r20, 0x20	; 32
    131c:	51 e4       	ldi	r21, 0x41	; 65
    131e:	0e 94 1f 02 	call	0x43e	; 0x43e <__mulsf3>
    1322:	dc 01       	movw	r26, r24
    1324:	cb 01       	movw	r24, r22
    1326:	bc 01       	movw	r22, r24
    1328:	cd 01       	movw	r24, r26
    132a:	0e 94 49 00 	call	0x92	; 0x92 <__fixunssfsi>
    132e:	dc 01       	movw	r26, r24
    1330:	cb 01       	movw	r24, r22
    1332:	9c 8b       	std	Y+20, r25	; 0x14
    1334:	8b 8b       	std	Y+19, r24	; 0x13
    1336:	0f c0       	rjmp	.+30     	; 0x1356 <LCD_displayCharacter+0x2c2>
    1338:	88 ec       	ldi	r24, 0xC8	; 200
    133a:	90 e0       	ldi	r25, 0x00	; 0
    133c:	9a 8b       	std	Y+18, r25	; 0x12
    133e:	89 8b       	std	Y+17, r24	; 0x11
    1340:	89 89       	ldd	r24, Y+17	; 0x11
    1342:	9a 89       	ldd	r25, Y+18	; 0x12
    1344:	01 97       	sbiw	r24, 0x01	; 1
    1346:	f1 f7       	brne	.-4      	; 0x1344 <LCD_displayCharacter+0x2b0>
    1348:	9a 8b       	std	Y+18, r25	; 0x12
    134a:	89 8b       	std	Y+17, r24	; 0x11
		while(__ticks)
		{
			// wait 1/10 ms
			_delay_loop_2(((F_CPU) / 4e3) / 10);
			__ticks --;
    134c:	8b 89       	ldd	r24, Y+19	; 0x13
    134e:	9c 89       	ldd	r25, Y+20	; 0x14
    1350:	01 97       	sbiw	r24, 0x01	; 1
    1352:	9c 8b       	std	Y+20, r25	; 0x14
    1354:	8b 8b       	std	Y+19, r24	; 0x13
		__ticks = 1;
	else if (__tmp > 65535)
	{
		//	__ticks = requested delay in 1/10 ms
		__ticks = (uint16_t) (__ms * 10.0);
		while(__ticks)
    1356:	8b 89       	ldd	r24, Y+19	; 0x13
    1358:	9c 89       	ldd	r25, Y+20	; 0x14
    135a:	00 97       	sbiw	r24, 0x00	; 0
    135c:	69 f7       	brne	.-38     	; 0x1338 <LCD_displayCharacter+0x2a4>
    135e:	14 c0       	rjmp	.+40     	; 0x1388 <LCD_displayCharacter+0x2f4>
			__ticks --;
		}
		return;
	}
	else
		__ticks = (uint16_t)__tmp;
    1360:	6d 89       	ldd	r22, Y+21	; 0x15
    1362:	7e 89       	ldd	r23, Y+22	; 0x16
    1364:	8f 89       	ldd	r24, Y+23	; 0x17
    1366:	98 8d       	ldd	r25, Y+24	; 0x18
    1368:	0e 94 49 00 	call	0x92	; 0x92 <__fixunssfsi>
    136c:	dc 01       	movw	r26, r24
    136e:	cb 01       	movw	r24, r22
    1370:	9c 8b       	std	Y+20, r25	; 0x14
    1372:	8b 8b       	std	Y+19, r24	; 0x13
    1374:	8b 89       	ldd	r24, Y+19	; 0x13
    1376:	9c 89       	ldd	r25, Y+20	; 0x14
    1378:	98 8b       	std	Y+16, r25	; 0x10
    137a:	8f 87       	std	Y+15, r24	; 0x0f
    137c:	8f 85       	ldd	r24, Y+15	; 0x0f
    137e:	98 89       	ldd	r25, Y+16	; 0x10
    1380:	01 97       	sbiw	r24, 0x01	; 1
    1382:	f1 f7       	brne	.-4      	; 0x1380 <LCD_displayCharacter+0x2ec>
    1384:	98 8b       	std	Y+16, r25	; 0x10
    1386:	8f 87       	std	Y+15, r24	; 0x0f

	/*wait at least (tdsw)ns before clearing the enable line*/
	_delay_ms(1);

	/*disable the LCD*/
	CLEAR_BIT(CTRL_PORT_OUT, EN);
    1388:	a5 e3       	ldi	r26, 0x35	; 53
    138a:	b0 e0       	ldi	r27, 0x00	; 0
    138c:	e5 e3       	ldi	r30, 0x35	; 53
    138e:	f0 e0       	ldi	r31, 0x00	; 0
    1390:	80 81       	ld	r24, Z
    1392:	8b 7f       	andi	r24, 0xFB	; 251
    1394:	8c 93       	st	X, r24
    1396:	80 e0       	ldi	r24, 0x00	; 0
    1398:	90 e0       	ldi	r25, 0x00	; 0
    139a:	a0 e8       	ldi	r26, 0x80	; 128
    139c:	bf e3       	ldi	r27, 0x3F	; 63
    139e:	8b 87       	std	Y+11, r24	; 0x0b
    13a0:	9c 87       	std	Y+12, r25	; 0x0c
    13a2:	ad 87       	std	Y+13, r26	; 0x0d
    13a4:	be 87       	std	Y+14, r27	; 0x0e
 */
void
_delay_ms(double __ms)
{
	uint16_t __ticks;
	double __tmp = ((F_CPU) / 4e3) * __ms;
    13a6:	6b 85       	ldd	r22, Y+11	; 0x0b
    13a8:	7c 85       	ldd	r23, Y+12	; 0x0c
    13aa:	8d 85       	ldd	r24, Y+13	; 0x0d
    13ac:	9e 85       	ldd	r25, Y+14	; 0x0e
    13ae:	20 e0       	ldi	r18, 0x00	; 0
    13b0:	30 e0       	ldi	r19, 0x00	; 0
    13b2:	4a ef       	ldi	r20, 0xFA	; 250
    13b4:	54 e4       	ldi	r21, 0x44	; 68
    13b6:	0e 94 1f 02 	call	0x43e	; 0x43e <__mulsf3>
    13ba:	dc 01       	movw	r26, r24
    13bc:	cb 01       	movw	r24, r22
    13be:	8f 83       	std	Y+7, r24	; 0x07
    13c0:	98 87       	std	Y+8, r25	; 0x08
    13c2:	a9 87       	std	Y+9, r26	; 0x09
    13c4:	ba 87       	std	Y+10, r27	; 0x0a
	if (__tmp < 1.0)
    13c6:	6f 81       	ldd	r22, Y+7	; 0x07
    13c8:	78 85       	ldd	r23, Y+8	; 0x08
    13ca:	89 85       	ldd	r24, Y+9	; 0x09
    13cc:	9a 85       	ldd	r25, Y+10	; 0x0a
    13ce:	20 e0       	ldi	r18, 0x00	; 0
    13d0:	30 e0       	ldi	r19, 0x00	; 0
    13d2:	40 e8       	ldi	r20, 0x80	; 128
    13d4:	5f e3       	ldi	r21, 0x3F	; 63
    13d6:	0e 94 79 03 	call	0x6f2	; 0x6f2 <__ltsf2>
    13da:	88 23       	and	r24, r24
    13dc:	2c f4       	brge	.+10     	; 0x13e8 <LCD_displayCharacter+0x354>
		__ticks = 1;
    13de:	81 e0       	ldi	r24, 0x01	; 1
    13e0:	90 e0       	ldi	r25, 0x00	; 0
    13e2:	9e 83       	std	Y+6, r25	; 0x06
    13e4:	8d 83       	std	Y+5, r24	; 0x05
    13e6:	3f c0       	rjmp	.+126    	; 0x1466 <LCD_displayCharacter+0x3d2>
	else if (__tmp > 65535)
    13e8:	6f 81       	ldd	r22, Y+7	; 0x07
    13ea:	78 85       	ldd	r23, Y+8	; 0x08
    13ec:	89 85       	ldd	r24, Y+9	; 0x09
    13ee:	9a 85       	ldd	r25, Y+10	; 0x0a
    13f0:	20 e0       	ldi	r18, 0x00	; 0
    13f2:	3f ef       	ldi	r19, 0xFF	; 255
    13f4:	4f e7       	ldi	r20, 0x7F	; 127
    13f6:	57 e4       	ldi	r21, 0x47	; 71
    13f8:	0e 94 19 03 	call	0x632	; 0x632 <__gtsf2>
    13fc:	18 16       	cp	r1, r24
    13fe:	4c f5       	brge	.+82     	; 0x1452 <LCD_displayCharacter+0x3be>
	{
		//	__ticks = requested delay in 1/10 ms
		__ticks = (uint16_t) (__ms * 10.0);
    1400:	6b 85       	ldd	r22, Y+11	; 0x0b
    1402:	7c 85       	ldd	r23, Y+12	; 0x0c
    1404:	8d 85       	ldd	r24, Y+13	; 0x0d
    1406:	9e 85       	ldd	r25, Y+14	; 0x0e
    1408:	20 e0       	ldi	r18, 0x00	; 0
    140a:	30 e0       	ldi	r19, 0x00	; 0
    140c:	40 e2       	ldi	r20, 0x20	; 32
    140e:	51 e4       	ldi	r21, 0x41	; 65
    1410:	0e 94 1f 02 	call	0x43e	; 0x43e <__mulsf3>
    1414:	dc 01       	movw	r26, r24
    1416:	cb 01       	movw	r24, r22
    1418:	bc 01       	movw	r22, r24
    141a:	cd 01       	movw	r24, r26
    141c:	0e 94 49 00 	call	0x92	; 0x92 <__fixunssfsi>
    1420:	dc 01       	movw	r26, r24
    1422:	cb 01       	movw	r24, r22
    1424:	9e 83       	std	Y+6, r25	; 0x06
    1426:	8d 83       	std	Y+5, r24	; 0x05
    1428:	0f c0       	rjmp	.+30     	; 0x1448 <LCD_displayCharacter+0x3b4>
    142a:	88 ec       	ldi	r24, 0xC8	; 200
    142c:	90 e0       	ldi	r25, 0x00	; 0
    142e:	9c 83       	std	Y+4, r25	; 0x04
    1430:	8b 83       	std	Y+3, r24	; 0x03
    1432:	8b 81       	ldd	r24, Y+3	; 0x03
    1434:	9c 81       	ldd	r25, Y+4	; 0x04
    1436:	01 97       	sbiw	r24, 0x01	; 1
    1438:	f1 f7       	brne	.-4      	; 0x1436 <LCD_displayCharacter+0x3a2>
    143a:	9c 83       	std	Y+4, r25	; 0x04
    143c:	8b 83       	std	Y+3, r24	; 0x03
		while(__ticks)
		{
			// wait 1/10 ms
			_delay_loop_2(((F_CPU) / 4e3) / 10);
			__ticks --;
    143e:	8d 81       	ldd	r24, Y+5	; 0x05
    1440:	9e 81       	ldd	r25, Y+6	; 0x06
    1442:	01 97       	sbiw	r24, 0x01	; 1
    1444:	9e 83       	std	Y+6, r25	; 0x06
    1446:	8d 83       	std	Y+5, r24	; 0x05
		__ticks = 1;
	else if (__tmp > 65535)
	{
		//	__ticks = requested delay in 1/10 ms
		__ticks = (uint16_t) (__ms * 10.0);
		while(__ticks)
    1448:	8d 81       	ldd	r24, Y+5	; 0x05
    144a:	9e 81       	ldd	r25, Y+6	; 0x06
    144c:	00 97       	sbiw	r24, 0x00	; 0
    144e:	69 f7       	brne	.-38     	; 0x142a <LCD_displayCharacter+0x396>
    1450:	14 c0       	rjmp	.+40     	; 0x147a <LCD_displayCharacter+0x3e6>
			__ticks --;
		}
		return;
	}
	else
		__ticks = (uint16_t)__tmp;
    1452:	6f 81       	ldd	r22, Y+7	; 0x07
    1454:	78 85       	ldd	r23, Y+8	; 0x08
    1456:	89 85       	ldd	r24, Y+9	; 0x09
    1458:	9a 85       	ldd	r25, Y+10	; 0x0a
    145a:	0e 94 49 00 	call	0x92	; 0x92 <__fixunssfsi>
    145e:	dc 01       	movw	r26, r24
    1460:	cb 01       	movw	r24, r22
    1462:	9e 83       	std	Y+6, r25	; 0x06
    1464:	8d 83       	std	Y+5, r24	; 0x05
    1466:	8d 81       	ldd	r24, Y+5	; 0x05
    1468:	9e 81       	ldd	r25, Y+6	; 0x06
    146a:	9a 83       	std	Y+2, r25	; 0x02
    146c:	89 83       	std	Y+1, r24	; 0x01
    146e:	89 81       	ldd	r24, Y+1	; 0x01
    1470:	9a 81       	ldd	r25, Y+2	; 0x02
    1472:	01 97       	sbiw	r24, 0x01	; 1
    1474:	f1 f7       	brne	.-4      	; 0x1472 <LCD_displayCharacter+0x3de>
    1476:	9a 83       	std	Y+2, r25	; 0x02
    1478:	89 83       	std	Y+1, r24	; 0x01

	/*Wait at least (th)ns while holding the data on the line after disabling the LCD*/
	_delay_ms(1);
}
    147a:	e9 96       	adiw	r28, 0x39	; 57
    147c:	0f b6       	in	r0, 0x3f	; 63
    147e:	f8 94       	cli
    1480:	de bf       	out	0x3e, r29	; 62
    1482:	0f be       	out	0x3f, r0	; 63
    1484:	cd bf       	out	0x3d, r28	; 61
    1486:	cf 91       	pop	r28
    1488:	df 91       	pop	r29
    148a:	08 95       	ret

0000148c <LCD_displayString>:
 * [Args]:
 * 		character_ptr: pointer to the first character of the string to be displayed
 * [Return]: None
 -----------------------------------------*/
void LCD_displayString(uint8 *character_ptr)
{
    148c:	df 93       	push	r29
    148e:	cf 93       	push	r28
    1490:	00 d0       	rcall	.+0      	; 0x1492 <LCD_displayString+0x6>
    1492:	cd b7       	in	r28, 0x3d	; 61
    1494:	de b7       	in	r29, 0x3e	; 62
    1496:	9a 83       	std	Y+2, r25	; 0x02
    1498:	89 83       	std	Y+1, r24	; 0x01
    149a:	0a c0       	rjmp	.+20     	; 0x14b0 <LCD_displayString+0x24>
	/*display the characters until the null terminator is encountered*/
	while(*character_ptr != '\0')
	{
		LCD_displayCharacter(*character_ptr);
    149c:	e9 81       	ldd	r30, Y+1	; 0x01
    149e:	fa 81       	ldd	r31, Y+2	; 0x02
    14a0:	80 81       	ld	r24, Z
    14a2:	0e 94 4a 08 	call	0x1094	; 0x1094 <LCD_displayCharacter>
		character_ptr++;
    14a6:	89 81       	ldd	r24, Y+1	; 0x01
    14a8:	9a 81       	ldd	r25, Y+2	; 0x02
    14aa:	01 96       	adiw	r24, 0x01	; 1
    14ac:	9a 83       	std	Y+2, r25	; 0x02
    14ae:	89 83       	std	Y+1, r24	; 0x01
 * [Return]: None
 -----------------------------------------*/
void LCD_displayString(uint8 *character_ptr)
{
	/*display the characters until the null terminator is encountered*/
	while(*character_ptr != '\0')
    14b0:	e9 81       	ldd	r30, Y+1	; 0x01
    14b2:	fa 81       	ldd	r31, Y+2	; 0x02
    14b4:	80 81       	ld	r24, Z
    14b6:	88 23       	and	r24, r24
    14b8:	89 f7       	brne	.-30     	; 0x149c <LCD_displayString+0x10>
	{
		LCD_displayCharacter(*character_ptr);
		character_ptr++;
	}
}
    14ba:	0f 90       	pop	r0
    14bc:	0f 90       	pop	r0
    14be:	cf 91       	pop	r28
    14c0:	df 91       	pop	r29
    14c2:	08 95       	ret

000014c4 <LCD_displayInt>:
 * [Args]:
 * 		int_num: a signed 32-bit integer number to be displayed
 * [Return]: None
 -----------------------------------------*/
void LCD_displayInt(sint32 int_num)
{
    14c4:	df 93       	push	r29
    14c6:	cf 93       	push	r28
    14c8:	cd b7       	in	r28, 0x3d	; 61
    14ca:	de b7       	in	r29, 0x3e	; 62
    14cc:	a4 97       	sbiw	r28, 0x24	; 36
    14ce:	0f b6       	in	r0, 0x3f	; 63
    14d0:	f8 94       	cli
    14d2:	de bf       	out	0x3e, r29	; 62
    14d4:	0f be       	out	0x3f, r0	; 63
    14d6:	cd bf       	out	0x3d, r28	; 61
    14d8:	69 a3       	std	Y+33, r22	; 0x21
    14da:	7a a3       	std	Y+34, r23	; 0x22
    14dc:	8b a3       	std	Y+35, r24	; 0x23
    14de:	9c a3       	std	Y+36, r25	; 0x24
	uint8 str_of_int[LCD_N_COL]= {0};
    14e0:	80 e2       	ldi	r24, 0x20	; 32
    14e2:	fe 01       	movw	r30, r28
    14e4:	31 96       	adiw	r30, 0x01	; 1
    14e6:	df 01       	movw	r26, r30
    14e8:	98 2f       	mov	r25, r24
    14ea:	1d 92       	st	X+, r1
    14ec:	9a 95       	dec	r25
    14ee:	e9 f7       	brne	.-6      	; 0x14ea <LCD_displayInt+0x26>
	if (int_num < 0)
    14f0:	89 a1       	ldd	r24, Y+33	; 0x21
    14f2:	9a a1       	ldd	r25, Y+34	; 0x22
    14f4:	ab a1       	ldd	r26, Y+35	; 0x23
    14f6:	bc a1       	ldd	r27, Y+36	; 0x24
    14f8:	bb 23       	and	r27, r27
    14fa:	94 f4       	brge	.+36     	; 0x1520 <LCD_displayInt+0x5c>
	{
		LCD_displayCharacter('-');
    14fc:	8d e2       	ldi	r24, 0x2D	; 45
    14fe:	0e 94 4a 08 	call	0x1094	; 0x1094 <LCD_displayCharacter>

		/*convert into a positive number*/
		int_num = -1 * int_num;
    1502:	89 a1       	ldd	r24, Y+33	; 0x21
    1504:	9a a1       	ldd	r25, Y+34	; 0x22
    1506:	ab a1       	ldd	r26, Y+35	; 0x23
    1508:	bc a1       	ldd	r27, Y+36	; 0x24
    150a:	b0 95       	com	r27
    150c:	a0 95       	com	r26
    150e:	90 95       	com	r25
    1510:	81 95       	neg	r24
    1512:	9f 4f       	sbci	r25, 0xFF	; 255
    1514:	af 4f       	sbci	r26, 0xFF	; 255
    1516:	bf 4f       	sbci	r27, 0xFF	; 255
    1518:	89 a3       	std	Y+33, r24	; 0x21
    151a:	9a a3       	std	Y+34, r25	; 0x22
    151c:	ab a3       	std	Y+35, r26	; 0x23
    151e:	bc a3       	std	Y+36, r27	; 0x24

	}
	/*convert the positive number (int_num) into a string (str_of_int)*/
	convertIntToString(int_num, str_of_int);
    1520:	89 a1       	ldd	r24, Y+33	; 0x21
    1522:	9a a1       	ldd	r25, Y+34	; 0x22
    1524:	ab a1       	ldd	r26, Y+35	; 0x23
    1526:	bc a1       	ldd	r27, Y+36	; 0x24
    1528:	bc 01       	movw	r22, r24
    152a:	cd 01       	movw	r24, r26
    152c:	9e 01       	movw	r18, r28
    152e:	2f 5f       	subi	r18, 0xFF	; 255
    1530:	3f 4f       	sbci	r19, 0xFF	; 255
    1532:	a9 01       	movw	r20, r18
    1534:	0e 94 a9 0a 	call	0x1552	; 0x1552 <convertIntToString>

	/*display the number*/
	LCD_displayString(str_of_int);
    1538:	ce 01       	movw	r24, r28
    153a:	01 96       	adiw	r24, 0x01	; 1
    153c:	0e 94 46 0a 	call	0x148c	; 0x148c <LCD_displayString>
}
    1540:	a4 96       	adiw	r28, 0x24	; 36
    1542:	0f b6       	in	r0, 0x3f	; 63
    1544:	f8 94       	cli
    1546:	de bf       	out	0x3e, r29	; 62
    1548:	0f be       	out	0x3f, r0	; 63
    154a:	cd bf       	out	0x3d, r28	; 61
    154c:	cf 91       	pop	r28
    154e:	df 91       	pop	r29
    1550:	08 95       	ret

00001552 <convertIntToString>:
 * 		int_num: a signed 32-bit integer number to be converted
 * 		*str_of_int_ptr: pointer to the string that represents the converted integer number
 * [Return]: None
 -----------------------------------------*/
void convertIntToString(uint32 int_num, uint8 *str_of_int_ptr)
{
    1552:	0f 93       	push	r16
    1554:	1f 93       	push	r17
    1556:	df 93       	push	r29
    1558:	cf 93       	push	r28
    155a:	cd b7       	in	r28, 0x3d	; 61
    155c:	de b7       	in	r29, 0x3e	; 62
    155e:	e7 97       	sbiw	r28, 0x37	; 55
    1560:	0f b6       	in	r0, 0x3f	; 63
    1562:	f8 94       	cli
    1564:	de bf       	out	0x3e, r29	; 62
    1566:	0f be       	out	0x3f, r0	; 63
    1568:	cd bf       	out	0x3d, r28	; 61
    156a:	6d a7       	std	Y+45, r22	; 0x2d
    156c:	7e a7       	std	Y+46, r23	; 0x2e
    156e:	8f a7       	std	Y+47, r24	; 0x2f
    1570:	98 ab       	std	Y+48, r25	; 0x30
    1572:	5a ab       	std	Y+50, r21	; 0x32
    1574:	49 ab       	std	Y+49, r20	; 0x31
	/*temporary array that stores the string of int_num in reverse.
	 * the first item is NULL so that it is the last item stored in str_of_int to fit
	 *  LCD_displayString().
	 */
	uint8 temp[LCD_N_COL]={'\0'};
    1576:	80 e2       	ldi	r24, 0x20	; 32
    1578:	fe 01       	movw	r30, r28
    157a:	33 96       	adiw	r30, 0x03	; 3
    157c:	df 01       	movw	r26, r30
    157e:	48 2f       	mov	r20, r24
    1580:	1d 92       	st	X+, r1
    1582:	4a 95       	dec	r20
    1584:	e9 f7       	brne	.-6      	; 0x1580 <convertIntToString+0x2e>

	/*a reference array that stores the ASCII corresponding to each decimal digit*/
	uint8 ASCII_reference[10] = {'0','1','2', '3', '4', '5', '6', '7', '8', '9'};
    1586:	ce 01       	movw	r24, r28
    1588:	83 96       	adiw	r24, 0x23	; 35
    158a:	9c ab       	std	Y+52, r25	; 0x34
    158c:	8b ab       	std	Y+51, r24	; 0x33
    158e:	a2 e0       	ldi	r26, 0x02	; 2
    1590:	b2 e0       	ldi	r27, 0x02	; 2
    1592:	be ab       	std	Y+54, r27	; 0x36
    1594:	ad ab       	std	Y+53, r26	; 0x35
    1596:	ba e0       	ldi	r27, 0x0A	; 10
    1598:	bf ab       	std	Y+55, r27	; 0x37
    159a:	ed a9       	ldd	r30, Y+53	; 0x35
    159c:	fe a9       	ldd	r31, Y+54	; 0x36
    159e:	00 80       	ld	r0, Z
    15a0:	4d a9       	ldd	r20, Y+53	; 0x35
    15a2:	5e a9       	ldd	r21, Y+54	; 0x36
    15a4:	4f 5f       	subi	r20, 0xFF	; 255
    15a6:	5f 4f       	sbci	r21, 0xFF	; 255
    15a8:	5e ab       	std	Y+54, r21	; 0x36
    15aa:	4d ab       	std	Y+53, r20	; 0x35
    15ac:	ab a9       	ldd	r26, Y+51	; 0x33
    15ae:	bc a9       	ldd	r27, Y+52	; 0x34
    15b0:	0c 92       	st	X, r0
    15b2:	eb a9       	ldd	r30, Y+51	; 0x33
    15b4:	fc a9       	ldd	r31, Y+52	; 0x34
    15b6:	31 96       	adiw	r30, 0x01	; 1
    15b8:	fc ab       	std	Y+52, r31	; 0x34
    15ba:	eb ab       	std	Y+51, r30	; 0x33
    15bc:	ff a9       	ldd	r31, Y+55	; 0x37
    15be:	f1 50       	subi	r31, 0x01	; 1
    15c0:	ff ab       	std	Y+55, r31	; 0x37
    15c2:	4f a9       	ldd	r20, Y+55	; 0x37
    15c4:	44 23       	and	r20, r20
    15c6:	49 f7       	brne	.-46     	; 0x159a <convertIntToString+0x48>

	/*index starts from 1, since element 0 is the null terminator*/
	uint8 index = 1;
    15c8:	81 e0       	ldi	r24, 0x01	; 1
    15ca:	8a 83       	std	Y+2, r24	; 0x02

	if(int_num == 0)
    15cc:	8d a5       	ldd	r24, Y+45	; 0x2d
    15ce:	9e a5       	ldd	r25, Y+46	; 0x2e
    15d0:	af a5       	ldd	r26, Y+47	; 0x2f
    15d2:	b8 a9       	ldd	r27, Y+48	; 0x30
    15d4:	00 97       	sbiw	r24, 0x00	; 0
    15d6:	a1 05       	cpc	r26, r1
    15d8:	b1 05       	cpc	r27, r1
    15da:	09 f0       	breq	.+2      	; 0x15de <convertIntToString+0x8c>
    15dc:	41 c0       	rjmp	.+130    	; 0x1660 <convertIntToString+0x10e>
	{
		temp[index] = ASCII_reference[0];
    15de:	8a 81       	ldd	r24, Y+2	; 0x02
    15e0:	28 2f       	mov	r18, r24
    15e2:	30 e0       	ldi	r19, 0x00	; 0
    15e4:	4b a1       	ldd	r20, Y+35	; 0x23
    15e6:	ce 01       	movw	r24, r28
    15e8:	03 96       	adiw	r24, 0x03	; 3
    15ea:	fc 01       	movw	r30, r24
    15ec:	e2 0f       	add	r30, r18
    15ee:	f3 1f       	adc	r31, r19
    15f0:	40 83       	st	Z, r20
		index++;
    15f2:	8a 81       	ldd	r24, Y+2	; 0x02
    15f4:	8f 5f       	subi	r24, 0xFF	; 255
    15f6:	8a 83       	std	Y+2, r24	; 0x02
    15f8:	3b c0       	rjmp	.+118    	; 0x1670 <convertIntToString+0x11e>
	}
	else
	{
		while(int_num != 0)
		{
			temp[index] = ASCII_reference[int_num % 10];
    15fa:	8a 81       	ldd	r24, Y+2	; 0x02
    15fc:	08 2f       	mov	r16, r24
    15fe:	10 e0       	ldi	r17, 0x00	; 0
    1600:	8d a5       	ldd	r24, Y+45	; 0x2d
    1602:	9e a5       	ldd	r25, Y+46	; 0x2e
    1604:	af a5       	ldd	r26, Y+47	; 0x2f
    1606:	b8 a9       	ldd	r27, Y+48	; 0x30
    1608:	2a e0       	ldi	r18, 0x0A	; 10
    160a:	30 e0       	ldi	r19, 0x00	; 0
    160c:	40 e0       	ldi	r20, 0x00	; 0
    160e:	50 e0       	ldi	r21, 0x00	; 0
    1610:	bc 01       	movw	r22, r24
    1612:	cd 01       	movw	r24, r26
    1614:	0e 94 09 17 	call	0x2e12	; 0x2e12 <__udivmodsi4>
    1618:	dc 01       	movw	r26, r24
    161a:	cb 01       	movw	r24, r22
    161c:	9e 01       	movw	r18, r28
    161e:	2d 5d       	subi	r18, 0xDD	; 221
    1620:	3f 4f       	sbci	r19, 0xFF	; 255
    1622:	f9 01       	movw	r30, r18
    1624:	e8 0f       	add	r30, r24
    1626:	f9 1f       	adc	r31, r25
    1628:	20 81       	ld	r18, Z
    162a:	ce 01       	movw	r24, r28
    162c:	03 96       	adiw	r24, 0x03	; 3
    162e:	fc 01       	movw	r30, r24
    1630:	e0 0f       	add	r30, r16
    1632:	f1 1f       	adc	r31, r17
    1634:	20 83       	st	Z, r18
			int_num /= 10;
    1636:	8d a5       	ldd	r24, Y+45	; 0x2d
    1638:	9e a5       	ldd	r25, Y+46	; 0x2e
    163a:	af a5       	ldd	r26, Y+47	; 0x2f
    163c:	b8 a9       	ldd	r27, Y+48	; 0x30
    163e:	2a e0       	ldi	r18, 0x0A	; 10
    1640:	30 e0       	ldi	r19, 0x00	; 0
    1642:	40 e0       	ldi	r20, 0x00	; 0
    1644:	50 e0       	ldi	r21, 0x00	; 0
    1646:	bc 01       	movw	r22, r24
    1648:	cd 01       	movw	r24, r26
    164a:	0e 94 09 17 	call	0x2e12	; 0x2e12 <__udivmodsi4>
    164e:	da 01       	movw	r26, r20
    1650:	c9 01       	movw	r24, r18
    1652:	8d a7       	std	Y+45, r24	; 0x2d
    1654:	9e a7       	std	Y+46, r25	; 0x2e
    1656:	af a7       	std	Y+47, r26	; 0x2f
    1658:	b8 ab       	std	Y+48, r27	; 0x30
			index++;
    165a:	8a 81       	ldd	r24, Y+2	; 0x02
    165c:	8f 5f       	subi	r24, 0xFF	; 255
    165e:	8a 83       	std	Y+2, r24	; 0x02
		temp[index] = ASCII_reference[0];
		index++;
	}
	else
	{
		while(int_num != 0)
    1660:	8d a5       	ldd	r24, Y+45	; 0x2d
    1662:	9e a5       	ldd	r25, Y+46	; 0x2e
    1664:	af a5       	ldd	r26, Y+47	; 0x2f
    1666:	b8 a9       	ldd	r27, Y+48	; 0x30
    1668:	00 97       	sbiw	r24, 0x00	; 0
    166a:	a1 05       	cpc	r26, r1
    166c:	b1 05       	cpc	r27, r1
    166e:	29 f6       	brne	.-118    	; 0x15fa <convertIntToString+0xa8>
		}

	}

	/*store the converted number in str_of_int in the right order*/
	for (uint8 i = 0; i < index; i++)
    1670:	19 82       	std	Y+1, r1	; 0x01
    1672:	1f c0       	rjmp	.+62     	; 0x16b2 <convertIntToString+0x160>
	{
		str_of_int_ptr[i] = temp[index - i -1];
    1674:	89 81       	ldd	r24, Y+1	; 0x01
    1676:	28 2f       	mov	r18, r24
    1678:	30 e0       	ldi	r19, 0x00	; 0
    167a:	89 a9       	ldd	r24, Y+49	; 0x31
    167c:	9a a9       	ldd	r25, Y+50	; 0x32
    167e:	dc 01       	movw	r26, r24
    1680:	a2 0f       	add	r26, r18
    1682:	b3 1f       	adc	r27, r19
    1684:	8a 81       	ldd	r24, Y+2	; 0x02
    1686:	28 2f       	mov	r18, r24
    1688:	30 e0       	ldi	r19, 0x00	; 0
    168a:	89 81       	ldd	r24, Y+1	; 0x01
    168c:	88 2f       	mov	r24, r24
    168e:	90 e0       	ldi	r25, 0x00	; 0
    1690:	f9 01       	movw	r30, r18
    1692:	e8 1b       	sub	r30, r24
    1694:	f9 0b       	sbc	r31, r25
    1696:	cf 01       	movw	r24, r30
    1698:	9c 01       	movw	r18, r24
    169a:	21 50       	subi	r18, 0x01	; 1
    169c:	30 40       	sbci	r19, 0x00	; 0
    169e:	ce 01       	movw	r24, r28
    16a0:	03 96       	adiw	r24, 0x03	; 3
    16a2:	fc 01       	movw	r30, r24
    16a4:	e2 0f       	add	r30, r18
    16a6:	f3 1f       	adc	r31, r19
    16a8:	80 81       	ld	r24, Z
    16aa:	8c 93       	st	X, r24
		}

	}

	/*store the converted number in str_of_int in the right order*/
	for (uint8 i = 0; i < index; i++)
    16ac:	89 81       	ldd	r24, Y+1	; 0x01
    16ae:	8f 5f       	subi	r24, 0xFF	; 255
    16b0:	89 83       	std	Y+1, r24	; 0x01
    16b2:	99 81       	ldd	r25, Y+1	; 0x01
    16b4:	8a 81       	ldd	r24, Y+2	; 0x02
    16b6:	98 17       	cp	r25, r24
    16b8:	e8 f2       	brcs	.-70     	; 0x1674 <convertIntToString+0x122>
	{
		str_of_int_ptr[i] = temp[index - i -1];
	}
}
    16ba:	e7 96       	adiw	r28, 0x37	; 55
    16bc:	0f b6       	in	r0, 0x3f	; 63
    16be:	f8 94       	cli
    16c0:	de bf       	out	0x3e, r29	; 62
    16c2:	0f be       	out	0x3f, r0	; 63
    16c4:	cd bf       	out	0x3d, r28	; 61
    16c6:	cf 91       	pop	r28
    16c8:	df 91       	pop	r29
    16ca:	1f 91       	pop	r17
    16cc:	0f 91       	pop	r16
    16ce:	08 95       	ret

000016d0 <LCD_init>:
 * [Description]: initializes the LCD
 * [Args]: None
 * [Return]: None
 -----------------------------------------*/
void LCD_init()
{
    16d0:	df 93       	push	r29
    16d2:	cf 93       	push	r28
    16d4:	cd b7       	in	r28, 0x3d	; 61
    16d6:	de b7       	in	r29, 0x3e	; 62
	/*Configure the control pins as o/p*/
	CTRL_PORT_DIR |= (1<<RS) | (1<<R_W) | (1<<EN);
    16d8:	a4 e3       	ldi	r26, 0x34	; 52
    16da:	b0 e0       	ldi	r27, 0x00	; 0
    16dc:	e4 e3       	ldi	r30, 0x34	; 52
    16de:	f0 e0       	ldi	r31, 0x00	; 0
    16e0:	80 81       	ld	r24, Z
    16e2:	87 60       	ori	r24, 0x07	; 7
    16e4:	8c 93       	st	X, r24

#if N_BIT_INTERFACE == 8
	/*Configure data pins as i/p*/
	DATA_PORT_DIR = 0xFF;
    16e6:	ea e3       	ldi	r30, 0x3A	; 58
    16e8:	f0 e0       	ldi	r31, 0x00	; 0
    16ea:	8f ef       	ldi	r24, 0xFF	; 255
    16ec:	80 83       	st	Z, r24

	/*switch to 2 lines, 8-bit mode*/
	LCD_sendCommand(TWO_LINE_8BIT_MODE);
    16ee:	88 e3       	ldi	r24, 0x38	; 56
    16f0:	0e 94 4e 06 	call	0xc9c	; 0xc9c <LCD_sendCommand>
	LCD_sendCommand(0x02);
	LCD_sendCommand(TWO_LINE_4BIT_MODE);

#endif

	LCD_sendCommand(CLEAR_DISPLAY_CLEAR_DDRAM);
    16f4:	81 e0       	ldi	r24, 0x01	; 1
    16f6:	0e 94 4e 06 	call	0xc9c	; 0xc9c <LCD_sendCommand>
	LCD_sendCommand(DISPLAY_ON_CURSOR_OFF);
    16fa:	8c e0       	ldi	r24, 0x0C	; 12
    16fc:	0e 94 4e 06 	call	0xc9c	; 0xc9c <LCD_sendCommand>
	LCD_sendCommand(CLEAR_DISPLAY);
    1700:	81 e0       	ldi	r24, 0x01	; 1
    1702:	0e 94 4e 06 	call	0xc9c	; 0xc9c <LCD_sendCommand>
}
    1706:	cf 91       	pop	r28
    1708:	df 91       	pop	r29
    170a:	08 95       	ret

0000170c <LCD_clear>:
 * [Description]: clears the display
 * [Args]: None
 * [Return]: None
 -----------------------------------------*/
void LCD_clear()
{
    170c:	df 93       	push	r29
    170e:	cf 93       	push	r28
    1710:	cd b7       	in	r28, 0x3d	; 61
    1712:	de b7       	in	r29, 0x3e	; 62
	LCD_sendCommand(CLEAR_DISPLAY);
    1714:	81 e0       	ldi	r24, 0x01	; 1
    1716:	0e 94 4e 06 	call	0xc9c	; 0xc9c <LCD_sendCommand>
}
    171a:	cf 91       	pop	r28
    171c:	df 91       	pop	r29
    171e:	08 95       	ret

00001720 <LCD_goToRowCol>:
 * 		row: the desired row number, starting from 0
 * 		col: the desired column number, starting from 0
 * [Return]: None
 -----------------------------------------*/
void LCD_goToRowCol(uint8 row, uint8 col)
{
    1720:	df 93       	push	r29
    1722:	cf 93       	push	r28
    1724:	00 d0       	rcall	.+0      	; 0x1726 <LCD_goToRowCol+0x6>
    1726:	00 d0       	rcall	.+0      	; 0x1728 <LCD_goToRowCol+0x8>
    1728:	cd b7       	in	r28, 0x3d	; 61
    172a:	de b7       	in	r29, 0x3e	; 62
    172c:	89 83       	std	Y+1, r24	; 0x01
    172e:	6a 83       	std	Y+2, r22	; 0x02
	/*To set the cursor position on the display, use the command: (0x80 + address)*/
	switch(row)
    1730:	89 81       	ldd	r24, Y+1	; 0x01
    1732:	28 2f       	mov	r18, r24
    1734:	30 e0       	ldi	r19, 0x00	; 0
    1736:	3c 83       	std	Y+4, r19	; 0x04
    1738:	2b 83       	std	Y+3, r18	; 0x03
    173a:	8b 81       	ldd	r24, Y+3	; 0x03
    173c:	9c 81       	ldd	r25, Y+4	; 0x04
    173e:	00 97       	sbiw	r24, 0x00	; 0
    1740:	31 f0       	breq	.+12     	; 0x174e <LCD_goToRowCol+0x2e>
    1742:	2b 81       	ldd	r18, Y+3	; 0x03
    1744:	3c 81       	ldd	r19, Y+4	; 0x04
    1746:	21 30       	cpi	r18, 0x01	; 1
    1748:	31 05       	cpc	r19, r1
    174a:	31 f0       	breq	.+12     	; 0x1758 <LCD_goToRowCol+0x38>
    174c:	09 c0       	rjmp	.+18     	; 0x1760 <LCD_goToRowCol+0x40>
	{
	case 0:
		LCD_sendCommand( 0x80 + (FIRST_LINE_BASE_ADDRESS + col) );
    174e:	8a 81       	ldd	r24, Y+2	; 0x02
    1750:	80 58       	subi	r24, 0x80	; 128
    1752:	0e 94 4e 06 	call	0xc9c	; 0xc9c <LCD_sendCommand>
    1756:	04 c0       	rjmp	.+8      	; 0x1760 <LCD_goToRowCol+0x40>
		break;
	case 1:
		LCD_sendCommand( 0x80 + (SECOND_LINE_BASE_ADDRESS + col) );
    1758:	8a 81       	ldd	r24, Y+2	; 0x02
    175a:	80 54       	subi	r24, 0x40	; 64
    175c:	0e 94 4e 06 	call	0xc9c	; 0xc9c <LCD_sendCommand>
		break;
	default:
		break;
	}
}
    1760:	0f 90       	pop	r0
    1762:	0f 90       	pop	r0
    1764:	0f 90       	pop	r0
    1766:	0f 90       	pop	r0
    1768:	cf 91       	pop	r28
    176a:	df 91       	pop	r29
    176c:	08 95       	ret

0000176e <Ocu_setCbk>:
uint8 g_ticksCounter = 0;

void (*g_Ocu_cbkPtr)() = NULL_PTR;

void Ocu_setCbk( void (*cbkPtr)(void) )
{
    176e:	df 93       	push	r29
    1770:	cf 93       	push	r28
    1772:	00 d0       	rcall	.+0      	; 0x1774 <Ocu_setCbk+0x6>
    1774:	cd b7       	in	r28, 0x3d	; 61
    1776:	de b7       	in	r29, 0x3e	; 62
    1778:	9a 83       	std	Y+2, r25	; 0x02
    177a:	89 83       	std	Y+1, r24	; 0x01
	g_Ocu_cbkPtr = cbkPtr;
    177c:	89 81       	ldd	r24, Y+1	; 0x01
    177e:	9a 81       	ldd	r25, Y+2	; 0x02
    1780:	90 93 27 02 	sts	0x0227, r25
    1784:	80 93 26 02 	sts	0x0226, r24
}
    1788:	0f 90       	pop	r0
    178a:	0f 90       	pop	r0
    178c:	cf 91       	pop	r28
    178e:	df 91       	pop	r29
    1790:	08 95       	ret

00001792 <Ocu_init>:
 * [Args]:
 * 		ConfigPtr: pointer to the configuration set
 * [Return]: None
 --------------------------------------------------------------*/
void Ocu_init(const Ocu_ConfigType *ConfigPtr)
{
    1792:	df 93       	push	r29
    1794:	cf 93       	push	r28
    1796:	00 d0       	rcall	.+0      	; 0x1798 <Ocu_init+0x6>
    1798:	cd b7       	in	r28, 0x3d	; 61
    179a:	de b7       	in	r29, 0x3e	; 62
    179c:	9a 83       	std	Y+2, r25	; 0x02
    179e:	89 83       	std	Y+1, r24	; 0x01
	/*Set FOC1 for non-PWM mode */
	SET_BIT(TCCR1A, FOC1A);
    17a0:	af e4       	ldi	r26, 0x4F	; 79
    17a2:	b0 e0       	ldi	r27, 0x00	; 0
    17a4:	ef e4       	ldi	r30, 0x4F	; 79
    17a6:	f0 e0       	ldi	r31, 0x00	; 0
    17a8:	80 81       	ld	r24, Z
    17aa:	88 60       	ori	r24, 0x08	; 8
    17ac:	8c 93       	st	X, r24
	//SET_BIT(TCCR1A, FOC1B);

	/*set OC1A behavior on compare match*/
	TCCR1A = (TCCR1A & 0x3F) | (ConfigPtr->e_ocu_pinAction << 6);
    17ae:	af e4       	ldi	r26, 0x4F	; 79
    17b0:	b0 e0       	ldi	r27, 0x00	; 0
    17b2:	ef e4       	ldi	r30, 0x4F	; 79
    17b4:	f0 e0       	ldi	r31, 0x00	; 0
    17b6:	80 81       	ld	r24, Z
    17b8:	28 2f       	mov	r18, r24
    17ba:	2f 73       	andi	r18, 0x3F	; 63
    17bc:	e9 81       	ldd	r30, Y+1	; 0x01
    17be:	fa 81       	ldd	r31, Y+2	; 0x02
    17c0:	80 81       	ld	r24, Z
    17c2:	88 2f       	mov	r24, r24
    17c4:	90 e0       	ldi	r25, 0x00	; 0
    17c6:	00 24       	eor	r0, r0
    17c8:	96 95       	lsr	r25
    17ca:	87 95       	ror	r24
    17cc:	07 94       	ror	r0
    17ce:	96 95       	lsr	r25
    17d0:	87 95       	ror	r24
    17d2:	07 94       	ror	r0
    17d4:	98 2f       	mov	r25, r24
    17d6:	80 2d       	mov	r24, r0
    17d8:	82 2b       	or	r24, r18
    17da:	8c 93       	st	X, r24
	//TCCR1A = (TCCR1A & 0xCF) | (ConfigPtr->e_ocu_pinAction << 4);	/*set OC1B behavior*/

	/*set the source for max counter value to be OCR1A register: WGM13:0 -> 0 1 0 0 */
	TCCR1B |= (1<<WGM12);
    17dc:	ae e4       	ldi	r26, 0x4E	; 78
    17de:	b0 e0       	ldi	r27, 0x00	; 0
    17e0:	ee e4       	ldi	r30, 0x4E	; 78
    17e2:	f0 e0       	ldi	r31, 0x00	; 0
    17e4:	80 81       	ld	r24, Z
    17e6:	88 60       	ori	r24, 0x08	; 8
    17e8:	8c 93       	st	X, r24

	/*set the prescaler*/
	TCCR1B = (TCCR1B & 0xF8) | (ConfigPtr->e_ocu_prescaler);
    17ea:	ae e4       	ldi	r26, 0x4E	; 78
    17ec:	b0 e0       	ldi	r27, 0x00	; 0
    17ee:	ee e4       	ldi	r30, 0x4E	; 78
    17f0:	f0 e0       	ldi	r31, 0x00	; 0
    17f2:	80 81       	ld	r24, Z
    17f4:	98 2f       	mov	r25, r24
    17f6:	98 7f       	andi	r25, 0xF8	; 248
    17f8:	e9 81       	ldd	r30, Y+1	; 0x01
    17fa:	fa 81       	ldd	r31, Y+2	; 0x02
    17fc:	81 81       	ldd	r24, Z+1	; 0x01
    17fe:	89 2b       	or	r24, r25
    1800:	8c 93       	st	X, r24
}
    1802:	0f 90       	pop	r0
    1804:	0f 90       	pop	r0
    1806:	cf 91       	pop	r28
    1808:	df 91       	pop	r29
    180a:	08 95       	ret

0000180c <Ocu_start>:
 * 		counterTop: TOP value to be compared with the counter value.
 * 		n_ticksRequired: Number of ticks required to count the required time, given the specified counterTop.
 * [Return]: None
 --------------------------------------------------------------*/
void Ocu_start(uint16 counterTop, uint8 n_ticksRequired)
{
    180c:	df 93       	push	r29
    180e:	cf 93       	push	r28
    1810:	00 d0       	rcall	.+0      	; 0x1812 <Ocu_start+0x6>
    1812:	0f 92       	push	r0
    1814:	cd b7       	in	r28, 0x3d	; 61
    1816:	de b7       	in	r29, 0x3e	; 62
    1818:	9a 83       	std	Y+2, r25	; 0x02
    181a:	89 83       	std	Y+1, r24	; 0x01
    181c:	6b 83       	std	Y+3, r22	; 0x03
	/*set the number of ticks required before notifying the callback. this value will be used by the ISR*/
	g_n_ticksRequired = n_ticksRequired;
    181e:	8b 81       	ldd	r24, Y+3	; 0x03
    1820:	80 93 24 02 	sts	0x0224, r24

	/*enable module interrupt*/
	SET_BIT(TIMSK, OCIE1A);
    1824:	a9 e5       	ldi	r26, 0x59	; 89
    1826:	b0 e0       	ldi	r27, 0x00	; 0
    1828:	e9 e5       	ldi	r30, 0x59	; 89
    182a:	f0 e0       	ldi	r31, 0x00	; 0
    182c:	80 81       	ld	r24, Z
    182e:	80 61       	ori	r24, 0x10	; 16
    1830:	8c 93       	st	X, r24

	/*counter starts from 0*/
	TCNT1 = 0;
    1832:	ec e4       	ldi	r30, 0x4C	; 76
    1834:	f0 e0       	ldi	r31, 0x00	; 0
    1836:	11 82       	std	Z+1, r1	; 0x01
    1838:	10 82       	st	Z, r1

	/*counts to counterTop*/
	OCR1A = counterTop;
    183a:	ea e4       	ldi	r30, 0x4A	; 74
    183c:	f0 e0       	ldi	r31, 0x00	; 0
    183e:	89 81       	ldd	r24, Y+1	; 0x01
    1840:	9a 81       	ldd	r25, Y+2	; 0x02
    1842:	91 83       	std	Z+1, r25	; 0x01
    1844:	80 83       	st	Z, r24
}
    1846:	0f 90       	pop	r0
    1848:	0f 90       	pop	r0
    184a:	0f 90       	pop	r0
    184c:	cf 91       	pop	r28
    184e:	df 91       	pop	r29
    1850:	08 95       	ret

00001852 <Ocu_stop>:
 * [Description]: Stops the timer
 * [Args]: None
 * [Return]: None
 --------------------------------------------------------------*/
void Ocu_stop(void)
{
    1852:	df 93       	push	r29
    1854:	cf 93       	push	r28
    1856:	cd b7       	in	r28, 0x3d	; 61
    1858:	de b7       	in	r29, 0x3e	; 62
	/*Disable module interrupt*/
	CLEAR_BIT(TIMSK, OCIE1A);
    185a:	a9 e5       	ldi	r26, 0x59	; 89
    185c:	b0 e0       	ldi	r27, 0x00	; 0
    185e:	e9 e5       	ldi	r30, 0x59	; 89
    1860:	f0 e0       	ldi	r31, 0x00	; 0
    1862:	80 81       	ld	r24, Z
    1864:	8f 7e       	andi	r24, 0xEF	; 239
    1866:	8c 93       	st	X, r24
}
    1868:	cf 91       	pop	r28
    186a:	df 91       	pop	r29
    186c:	08 95       	ret

0000186e <Ocu_deInit>:
 * [Description]: De-initializes the output compare unit
 * [Args]: None
 * [Return]: None
 --------------------------------------------------------------*/
void Ocu_deInit(void)
{
    186e:	df 93       	push	r29
    1870:	cf 93       	push	r28
    1872:	cd b7       	in	r28, 0x3d	; 61
    1874:	de b7       	in	r29, 0x3e	; 62
	CLEAR_BIT(TCCR1A, FOC1A);
    1876:	af e4       	ldi	r26, 0x4F	; 79
    1878:	b0 e0       	ldi	r27, 0x00	; 0
    187a:	ef e4       	ldi	r30, 0x4F	; 79
    187c:	f0 e0       	ldi	r31, 0x00	; 0
    187e:	80 81       	ld	r24, Z
    1880:	87 7f       	andi	r24, 0xF7	; 247
    1882:	8c 93       	st	X, r24
	//CLEAR_BIT(TCCR1A, FOC1B);
	TCCR1A = (TCCR1A & 0x3F) | (0);
    1884:	af e4       	ldi	r26, 0x4F	; 79
    1886:	b0 e0       	ldi	r27, 0x00	; 0
    1888:	ef e4       	ldi	r30, 0x4F	; 79
    188a:	f0 e0       	ldi	r31, 0x00	; 0
    188c:	80 81       	ld	r24, Z
    188e:	8f 73       	andi	r24, 0x3F	; 63
    1890:	8c 93       	st	X, r24
	TCCR1B &= ~(1<<WGM12);
    1892:	ae e4       	ldi	r26, 0x4E	; 78
    1894:	b0 e0       	ldi	r27, 0x00	; 0
    1896:	ee e4       	ldi	r30, 0x4E	; 78
    1898:	f0 e0       	ldi	r31, 0x00	; 0
    189a:	80 81       	ld	r24, Z
    189c:	87 7f       	andi	r24, 0xF7	; 247
    189e:	8c 93       	st	X, r24
	TCCR1B = (TCCR1B & 0xF8) | (0);		/*no clock source*/
    18a0:	ae e4       	ldi	r26, 0x4E	; 78
    18a2:	b0 e0       	ldi	r27, 0x00	; 0
    18a4:	ee e4       	ldi	r30, 0x4E	; 78
    18a6:	f0 e0       	ldi	r31, 0x00	; 0
    18a8:	80 81       	ld	r24, Z
    18aa:	88 7f       	andi	r24, 0xF8	; 248
    18ac:	8c 93       	st	X, r24
}
    18ae:	cf 91       	pop	r28
    18b0:	df 91       	pop	r29
    18b2:	08 95       	ret

000018b4 <__vector_6>:



/*~~~~~~~~~~~~~~~~~~~ ISR ~~~~~~~~~~~~~~~~~~~~~*/
ISR(TIMER1_COMPA_vect)
{
    18b4:	1f 92       	push	r1
    18b6:	0f 92       	push	r0
    18b8:	0f b6       	in	r0, 0x3f	; 63
    18ba:	0f 92       	push	r0
    18bc:	11 24       	eor	r1, r1
    18be:	2f 93       	push	r18
    18c0:	3f 93       	push	r19
    18c2:	4f 93       	push	r20
    18c4:	5f 93       	push	r21
    18c6:	6f 93       	push	r22
    18c8:	7f 93       	push	r23
    18ca:	8f 93       	push	r24
    18cc:	9f 93       	push	r25
    18ce:	af 93       	push	r26
    18d0:	bf 93       	push	r27
    18d2:	ef 93       	push	r30
    18d4:	ff 93       	push	r31
    18d6:	df 93       	push	r29
    18d8:	cf 93       	push	r28
    18da:	cd b7       	in	r28, 0x3d	; 61
    18dc:	de b7       	in	r29, 0x3e	; 62
	g_ticksCounter++;
    18de:	80 91 25 02 	lds	r24, 0x0225
    18e2:	8f 5f       	subi	r24, 0xFF	; 255
    18e4:	80 93 25 02 	sts	0x0225, r24
	//PORTD = g_ticksCounter;
	//LCD_displayInt(g_n_ticksRequired);
	if(g_ticksCounter == g_n_ticksRequired)
    18e8:	90 91 25 02 	lds	r25, 0x0225
    18ec:	80 91 24 02 	lds	r24, 0x0224
    18f0:	98 17       	cp	r25, r24
    18f2:	69 f4       	brne	.+26     	; 0x190e <__vector_6+0x5a>
	{
		if(g_Ocu_cbkPtr != NULL_PTR)
    18f4:	80 91 26 02 	lds	r24, 0x0226
    18f8:	90 91 27 02 	lds	r25, 0x0227
    18fc:	00 97       	sbiw	r24, 0x00	; 0
    18fe:	39 f0       	breq	.+14     	; 0x190e <__vector_6+0x5a>
		{
			g_Ocu_cbkPtr();
    1900:	e0 91 26 02 	lds	r30, 0x0226
    1904:	f0 91 27 02 	lds	r31, 0x0227
    1908:	09 95       	icall
			g_ticksCounter = 0;
    190a:	10 92 25 02 	sts	0x0225, r1
		}

	}
}
    190e:	cf 91       	pop	r28
    1910:	df 91       	pop	r29
    1912:	ff 91       	pop	r31
    1914:	ef 91       	pop	r30
    1916:	bf 91       	pop	r27
    1918:	af 91       	pop	r26
    191a:	9f 91       	pop	r25
    191c:	8f 91       	pop	r24
    191e:	7f 91       	pop	r23
    1920:	6f 91       	pop	r22
    1922:	5f 91       	pop	r21
    1924:	4f 91       	pop	r20
    1926:	3f 91       	pop	r19
    1928:	2f 91       	pop	r18
    192a:	0f 90       	pop	r0
    192c:	0f be       	out	0x3f, r0	; 63
    192e:	0f 90       	pop	r0
    1930:	1f 90       	pop	r1
    1932:	18 95       	reti

00001934 <UART_init>:
 * [Args]:
 * 		config_ptr: pointer to the configuration set
 * [Return]: None
 -----------------------------------------*/
void UART_init(const Uart_ConfigType *config_ptr)
{
    1934:	0f 93       	push	r16
    1936:	1f 93       	push	r17
    1938:	df 93       	push	r29
    193a:	cf 93       	push	r28
    193c:	00 d0       	rcall	.+0      	; 0x193e <UART_init+0xa>
    193e:	cd b7       	in	r28, 0x3d	; 61
    1940:	de b7       	in	r29, 0x3e	; 62
    1942:	9a 83       	std	Y+2, r25	; 0x02
    1944:	89 83       	std	Y+1, r24	; 0x01
	 * - set the character size
	 * - set the baud rate
	 *********************************************/

	/*Enable the USART transmitter & receiver */
	SET_BIT(UCSRB, RXEN);
    1946:	aa e2       	ldi	r26, 0x2A	; 42
    1948:	b0 e0       	ldi	r27, 0x00	; 0
    194a:	ea e2       	ldi	r30, 0x2A	; 42
    194c:	f0 e0       	ldi	r31, 0x00	; 0
    194e:	80 81       	ld	r24, Z
    1950:	80 61       	ori	r24, 0x10	; 16
    1952:	8c 93       	st	X, r24
	SET_BIT(UCSRB, TXEN);
    1954:	aa e2       	ldi	r26, 0x2A	; 42
    1956:	b0 e0       	ldi	r27, 0x00	; 0
    1958:	ea e2       	ldi	r30, 0x2A	; 42
    195a:	f0 e0       	ldi	r31, 0x00	; 0
    195c:	80 81       	ld	r24, Z
    195e:	88 60       	ori	r24, 0x08	; 8
    1960:	8c 93       	st	X, r24

#ifdef DOUBLE_SPEED
	/*Enable double speed*/
	SET_BIT(UCSRA, U2X);
    1962:	ab e2       	ldi	r26, 0x2B	; 43
    1964:	b0 e0       	ldi	r27, 0x00	; 0
    1966:	eb e2       	ldi	r30, 0x2B	; 43
    1968:	f0 e0       	ldi	r31, 0x00	; 0
    196a:	80 81       	ld	r24, Z
    196c:	82 60       	ori	r24, 0x02	; 2
    196e:	8c 93       	st	X, r24
#endif

	/*to access UCSRC, URSEL needs to be set*/
	SET_BIT(UCSRC, URSEL);
    1970:	a0 e4       	ldi	r26, 0x40	; 64
    1972:	b0 e0       	ldi	r27, 0x00	; 0
    1974:	e0 e4       	ldi	r30, 0x40	; 64
    1976:	f0 e0       	ldi	r31, 0x00	; 0
    1978:	80 81       	ld	r24, Z
    197a:	80 68       	ori	r24, 0x80	; 128
    197c:	8c 93       	st	X, r24
	/*set the mode to synchronous or asynchronous*/
	UCSRC = (UCSRC & 0xBF) | (UART_MODE<<UMSEL);
    197e:	a0 e4       	ldi	r26, 0x40	; 64
    1980:	b0 e0       	ldi	r27, 0x00	; 0
    1982:	e0 e4       	ldi	r30, 0x40	; 64
    1984:	f0 e0       	ldi	r31, 0x00	; 0
    1986:	80 81       	ld	r24, Z
    1988:	8f 7b       	andi	r24, 0xBF	; 191
    198a:	8c 93       	st	X, r24
	/*~~~~~~~~~ frame ~~~~~~~*/
	UCSRC = (UCSRC & 0xCF) | (config_ptr->e_Uart_parityMode << UPM0);
    198c:	a0 e4       	ldi	r26, 0x40	; 64
    198e:	b0 e0       	ldi	r27, 0x00	; 0
    1990:	e0 e4       	ldi	r30, 0x40	; 64
    1992:	f0 e0       	ldi	r31, 0x00	; 0
    1994:	80 81       	ld	r24, Z
    1996:	28 2f       	mov	r18, r24
    1998:	2f 7c       	andi	r18, 0xCF	; 207
    199a:	e9 81       	ldd	r30, Y+1	; 0x01
    199c:	fa 81       	ldd	r31, Y+2	; 0x02
    199e:	80 81       	ld	r24, Z
    19a0:	88 2f       	mov	r24, r24
    19a2:	90 e0       	ldi	r25, 0x00	; 0
    19a4:	82 95       	swap	r24
    19a6:	92 95       	swap	r25
    19a8:	90 7f       	andi	r25, 0xF0	; 240
    19aa:	98 27       	eor	r25, r24
    19ac:	80 7f       	andi	r24, 0xF0	; 240
    19ae:	98 27       	eor	r25, r24
    19b0:	82 2b       	or	r24, r18
    19b2:	8c 93       	st	X, r24
	UCSRC = (UCSRC & 0xF7) | (config_ptr->e_Uart_stopBit << USBS);
    19b4:	a0 e4       	ldi	r26, 0x40	; 64
    19b6:	b0 e0       	ldi	r27, 0x00	; 0
    19b8:	e0 e4       	ldi	r30, 0x40	; 64
    19ba:	f0 e0       	ldi	r31, 0x00	; 0
    19bc:	80 81       	ld	r24, Z
    19be:	28 2f       	mov	r18, r24
    19c0:	27 7f       	andi	r18, 0xF7	; 247
    19c2:	e9 81       	ldd	r30, Y+1	; 0x01
    19c4:	fa 81       	ldd	r31, Y+2	; 0x02
    19c6:	81 81       	ldd	r24, Z+1	; 0x01
    19c8:	88 2f       	mov	r24, r24
    19ca:	90 e0       	ldi	r25, 0x00	; 0
    19cc:	88 0f       	add	r24, r24
    19ce:	99 1f       	adc	r25, r25
    19d0:	88 0f       	add	r24, r24
    19d2:	99 1f       	adc	r25, r25
    19d4:	88 0f       	add	r24, r24
    19d6:	99 1f       	adc	r25, r25
    19d8:	82 2b       	or	r24, r18
    19da:	8c 93       	st	X, r24
	UCSRC = (UCSRC & 0xF9) | ((config_ptr->e_Uart_charSize & 0x03) << UCSZ0);
    19dc:	a0 e4       	ldi	r26, 0x40	; 64
    19de:	b0 e0       	ldi	r27, 0x00	; 0
    19e0:	e0 e4       	ldi	r30, 0x40	; 64
    19e2:	f0 e0       	ldi	r31, 0x00	; 0
    19e4:	80 81       	ld	r24, Z
    19e6:	28 2f       	mov	r18, r24
    19e8:	29 7f       	andi	r18, 0xF9	; 249
    19ea:	e9 81       	ldd	r30, Y+1	; 0x01
    19ec:	fa 81       	ldd	r31, Y+2	; 0x02
    19ee:	82 81       	ldd	r24, Z+2	; 0x02
    19f0:	88 2f       	mov	r24, r24
    19f2:	90 e0       	ldi	r25, 0x00	; 0
    19f4:	83 70       	andi	r24, 0x03	; 3
    19f6:	90 70       	andi	r25, 0x00	; 0
    19f8:	88 0f       	add	r24, r24
    19fa:	99 1f       	adc	r25, r25
    19fc:	82 2b       	or	r24, r18
    19fe:	8c 93       	st	X, r24
	UCSRB = (UCSRB & 0xFB) | (config_ptr->e_Uart_charSize & 0x04);
    1a00:	aa e2       	ldi	r26, 0x2A	; 42
    1a02:	b0 e0       	ldi	r27, 0x00	; 0
    1a04:	ea e2       	ldi	r30, 0x2A	; 42
    1a06:	f0 e0       	ldi	r31, 0x00	; 0
    1a08:	80 81       	ld	r24, Z
    1a0a:	98 2f       	mov	r25, r24
    1a0c:	9b 7f       	andi	r25, 0xFB	; 251
    1a0e:	e9 81       	ldd	r30, Y+1	; 0x01
    1a10:	fa 81       	ldd	r31, Y+2	; 0x02
    1a12:	82 81       	ldd	r24, Z+2	; 0x02
    1a14:	84 70       	andi	r24, 0x04	; 4
    1a16:	89 2b       	or	r24, r25
    1a18:	8c 93       	st	X, r24
	/*Clear URSEL to access UBRRH*/
	CLEAR_BIT(UBRRH, URSEL);
    1a1a:	a0 e4       	ldi	r26, 0x40	; 64
    1a1c:	b0 e0       	ldi	r27, 0x00	; 0
    1a1e:	e0 e4       	ldi	r30, 0x40	; 64
    1a20:	f0 e0       	ldi	r31, 0x00	; 0
    1a22:	80 81       	ld	r24, Z
    1a24:	8f 77       	andi	r24, 0x7F	; 127
    1a26:	8c 93       	st	X, r24
	/*Baud rate*/
	UBRRH = BAUD_RATE_GENERATOR(config_ptr->Uart_baudRate) >> 8;
    1a28:	00 e4       	ldi	r16, 0x40	; 64
    1a2a:	10 e0       	ldi	r17, 0x00	; 0
    1a2c:	e9 81       	ldd	r30, Y+1	; 0x01
    1a2e:	fa 81       	ldd	r31, Y+2	; 0x02
    1a30:	83 81       	ldd	r24, Z+3	; 0x03
    1a32:	94 81       	ldd	r25, Z+4	; 0x04
    1a34:	cc 01       	movw	r24, r24
    1a36:	a0 e0       	ldi	r26, 0x00	; 0
    1a38:	b0 e0       	ldi	r27, 0x00	; 0
    1a3a:	88 0f       	add	r24, r24
    1a3c:	99 1f       	adc	r25, r25
    1a3e:	aa 1f       	adc	r26, r26
    1a40:	bb 1f       	adc	r27, r27
    1a42:	88 0f       	add	r24, r24
    1a44:	99 1f       	adc	r25, r25
    1a46:	aa 1f       	adc	r26, r26
    1a48:	bb 1f       	adc	r27, r27
    1a4a:	88 0f       	add	r24, r24
    1a4c:	99 1f       	adc	r25, r25
    1a4e:	aa 1f       	adc	r26, r26
    1a50:	bb 1f       	adc	r27, r27
    1a52:	9c 01       	movw	r18, r24
    1a54:	ad 01       	movw	r20, r26
    1a56:	80 e0       	ldi	r24, 0x00	; 0
    1a58:	92 e1       	ldi	r25, 0x12	; 18
    1a5a:	aa e7       	ldi	r26, 0x7A	; 122
    1a5c:	b0 e0       	ldi	r27, 0x00	; 0
    1a5e:	bc 01       	movw	r22, r24
    1a60:	cd 01       	movw	r24, r26
    1a62:	0e 94 09 17 	call	0x2e12	; 0x2e12 <__udivmodsi4>
    1a66:	da 01       	movw	r26, r20
    1a68:	c9 01       	movw	r24, r18
    1a6a:	01 97       	sbiw	r24, 0x01	; 1
    1a6c:	a1 09       	sbc	r26, r1
    1a6e:	b1 09       	sbc	r27, r1
    1a70:	89 2f       	mov	r24, r25
    1a72:	9a 2f       	mov	r25, r26
    1a74:	ab 2f       	mov	r26, r27
    1a76:	bb 27       	eor	r27, r27
    1a78:	f8 01       	movw	r30, r16
    1a7a:	80 83       	st	Z, r24
	UBRRL = BAUD_RATE_GENERATOR(config_ptr->Uart_baudRate);
    1a7c:	09 e2       	ldi	r16, 0x29	; 41
    1a7e:	10 e0       	ldi	r17, 0x00	; 0
    1a80:	e9 81       	ldd	r30, Y+1	; 0x01
    1a82:	fa 81       	ldd	r31, Y+2	; 0x02
    1a84:	83 81       	ldd	r24, Z+3	; 0x03
    1a86:	94 81       	ldd	r25, Z+4	; 0x04
    1a88:	cc 01       	movw	r24, r24
    1a8a:	a0 e0       	ldi	r26, 0x00	; 0
    1a8c:	b0 e0       	ldi	r27, 0x00	; 0
    1a8e:	88 0f       	add	r24, r24
    1a90:	99 1f       	adc	r25, r25
    1a92:	aa 1f       	adc	r26, r26
    1a94:	bb 1f       	adc	r27, r27
    1a96:	88 0f       	add	r24, r24
    1a98:	99 1f       	adc	r25, r25
    1a9a:	aa 1f       	adc	r26, r26
    1a9c:	bb 1f       	adc	r27, r27
    1a9e:	88 0f       	add	r24, r24
    1aa0:	99 1f       	adc	r25, r25
    1aa2:	aa 1f       	adc	r26, r26
    1aa4:	bb 1f       	adc	r27, r27
    1aa6:	9c 01       	movw	r18, r24
    1aa8:	ad 01       	movw	r20, r26
    1aaa:	80 e0       	ldi	r24, 0x00	; 0
    1aac:	92 e1       	ldi	r25, 0x12	; 18
    1aae:	aa e7       	ldi	r26, 0x7A	; 122
    1ab0:	b0 e0       	ldi	r27, 0x00	; 0
    1ab2:	bc 01       	movw	r22, r24
    1ab4:	cd 01       	movw	r24, r26
    1ab6:	0e 94 09 17 	call	0x2e12	; 0x2e12 <__udivmodsi4>
    1aba:	da 01       	movw	r26, r20
    1abc:	c9 01       	movw	r24, r18
    1abe:	81 50       	subi	r24, 0x01	; 1
    1ac0:	f8 01       	movw	r30, r16
    1ac2:	80 83       	st	Z, r24

}
    1ac4:	0f 90       	pop	r0
    1ac6:	0f 90       	pop	r0
    1ac8:	cf 91       	pop	r28
    1aca:	df 91       	pop	r29
    1acc:	1f 91       	pop	r17
    1ace:	0f 91       	pop	r16
    1ad0:	08 95       	ret

00001ad2 <UART_sendByte>:
 * [Args]:
 * 		data: byte to be sent
 * [Return]: None
 -----------------------------------------*/
void UART_sendByte(uint8 data)
{
    1ad2:	df 93       	push	r29
    1ad4:	cf 93       	push	r28
    1ad6:	0f 92       	push	r0
    1ad8:	cd b7       	in	r28, 0x3d	; 61
    1ada:	de b7       	in	r29, 0x3e	; 62
    1adc:	89 83       	std	Y+1, r24	; 0x01
	/*wait until the transmit buffer is empty*/
	while( BIT_IS_CLEAR(UCSRA, UDRE));
    1ade:	eb e2       	ldi	r30, 0x2B	; 43
    1ae0:	f0 e0       	ldi	r31, 0x00	; 0
    1ae2:	80 81       	ld	r24, Z
    1ae4:	88 2f       	mov	r24, r24
    1ae6:	90 e0       	ldi	r25, 0x00	; 0
    1ae8:	80 72       	andi	r24, 0x20	; 32
    1aea:	90 70       	andi	r25, 0x00	; 0
    1aec:	00 97       	sbiw	r24, 0x00	; 0
    1aee:	b9 f3       	breq	.-18     	; 0x1ade <UART_sendByte+0xc>

	/*start transmission*/
	UDR = data;
    1af0:	ec e2       	ldi	r30, 0x2C	; 44
    1af2:	f0 e0       	ldi	r31, 0x00	; 0
    1af4:	89 81       	ldd	r24, Y+1	; 0x01
    1af6:	80 83       	st	Z, r24
}
    1af8:	0f 90       	pop	r0
    1afa:	cf 91       	pop	r28
    1afc:	df 91       	pop	r29
    1afe:	08 95       	ret

00001b00 <UART_receiveByte>:
 * [Description]: receives a byte of data
 * [Args]: None
 * [Return]: the received byte
 -----------------------------------------*/
uint8 UART_receiveByte()
{
    1b00:	df 93       	push	r29
    1b02:	cf 93       	push	r28
    1b04:	cd b7       	in	r28, 0x3d	; 61
    1b06:	de b7       	in	r29, 0x3e	; 62
	/*wait until the whole byte is received*/
	while( BIT_IS_CLEAR(UCSRA, RXC));
    1b08:	eb e2       	ldi	r30, 0x2B	; 43
    1b0a:	f0 e0       	ldi	r31, 0x00	; 0
    1b0c:	80 81       	ld	r24, Z
    1b0e:	88 23       	and	r24, r24
    1b10:	dc f7       	brge	.-10     	; 0x1b08 <UART_receiveByte+0x8>

	/*read the buffer, clear the flag*/
	return UDR;
    1b12:	ec e2       	ldi	r30, 0x2C	; 44
    1b14:	f0 e0       	ldi	r31, 0x00	; 0
    1b16:	80 81       	ld	r24, Z
}
    1b18:	cf 91       	pop	r28
    1b1a:	df 91       	pop	r29
    1b1c:	08 95       	ret

00001b1e <UART_receiveString>:
 * [Args]:
 * 		str_ptr: pointer to an array of characters, where the received string will be stored
 * [Return]: None
 -----------------------------------------*/
void UART_receiveString(uint8 *str_ptr)
{
    1b1e:	0f 93       	push	r16
    1b20:	1f 93       	push	r17
    1b22:	df 93       	push	r29
    1b24:	cf 93       	push	r28
    1b26:	00 d0       	rcall	.+0      	; 0x1b28 <UART_receiveString+0xa>
    1b28:	0f 92       	push	r0
    1b2a:	cd b7       	in	r28, 0x3d	; 61
    1b2c:	de b7       	in	r29, 0x3e	; 62
    1b2e:	9b 83       	std	Y+3, r25	; 0x03
    1b30:	8a 83       	std	Y+2, r24	; 0x02
	/*
	 * the string will terminate with a special character '#' followed by the null terminator.
	 * the function loops until it detects the special character and replaces it with the null terminator
	 */
	uint8 index = 0;
    1b32:	19 82       	std	Y+1, r1	; 0x01
	str_ptr[index] = UART_receiveByte();
    1b34:	89 81       	ldd	r24, Y+1	; 0x01
    1b36:	28 2f       	mov	r18, r24
    1b38:	30 e0       	ldi	r19, 0x00	; 0
    1b3a:	8a 81       	ldd	r24, Y+2	; 0x02
    1b3c:	9b 81       	ldd	r25, Y+3	; 0x03
    1b3e:	8c 01       	movw	r16, r24
    1b40:	02 0f       	add	r16, r18
    1b42:	13 1f       	adc	r17, r19
    1b44:	0e 94 80 0d 	call	0x1b00	; 0x1b00 <UART_receiveByte>
    1b48:	f8 01       	movw	r30, r16
    1b4a:	80 83       	st	Z, r24
    1b4c:	0f c0       	rjmp	.+30     	; 0x1b6c <UART_receiveString+0x4e>
	while (str_ptr[index] != '#')
	{
		index++;
    1b4e:	89 81       	ldd	r24, Y+1	; 0x01
    1b50:	8f 5f       	subi	r24, 0xFF	; 255
    1b52:	89 83       	std	Y+1, r24	; 0x01
		str_ptr[index] = UART_receiveByte();
    1b54:	89 81       	ldd	r24, Y+1	; 0x01
    1b56:	28 2f       	mov	r18, r24
    1b58:	30 e0       	ldi	r19, 0x00	; 0
    1b5a:	8a 81       	ldd	r24, Y+2	; 0x02
    1b5c:	9b 81       	ldd	r25, Y+3	; 0x03
    1b5e:	8c 01       	movw	r16, r24
    1b60:	02 0f       	add	r16, r18
    1b62:	13 1f       	adc	r17, r19
    1b64:	0e 94 80 0d 	call	0x1b00	; 0x1b00 <UART_receiveByte>
    1b68:	f8 01       	movw	r30, r16
    1b6a:	80 83       	st	Z, r24
	 * the string will terminate with a special character '#' followed by the null terminator.
	 * the function loops until it detects the special character and replaces it with the null terminator
	 */
	uint8 index = 0;
	str_ptr[index] = UART_receiveByte();
	while (str_ptr[index] != '#')
    1b6c:	89 81       	ldd	r24, Y+1	; 0x01
    1b6e:	28 2f       	mov	r18, r24
    1b70:	30 e0       	ldi	r19, 0x00	; 0
    1b72:	8a 81       	ldd	r24, Y+2	; 0x02
    1b74:	9b 81       	ldd	r25, Y+3	; 0x03
    1b76:	fc 01       	movw	r30, r24
    1b78:	e2 0f       	add	r30, r18
    1b7a:	f3 1f       	adc	r31, r19
    1b7c:	80 81       	ld	r24, Z
    1b7e:	83 32       	cpi	r24, 0x23	; 35
    1b80:	31 f7       	brne	.-52     	; 0x1b4e <UART_receiveString+0x30>
	{
		index++;
		str_ptr[index] = UART_receiveByte();
	}
	str_ptr[index] = '\0';
    1b82:	89 81       	ldd	r24, Y+1	; 0x01
    1b84:	28 2f       	mov	r18, r24
    1b86:	30 e0       	ldi	r19, 0x00	; 0
    1b88:	8a 81       	ldd	r24, Y+2	; 0x02
    1b8a:	9b 81       	ldd	r25, Y+3	; 0x03
    1b8c:	fc 01       	movw	r30, r24
    1b8e:	e2 0f       	add	r30, r18
    1b90:	f3 1f       	adc	r31, r19
    1b92:	10 82       	st	Z, r1
}
    1b94:	0f 90       	pop	r0
    1b96:	0f 90       	pop	r0
    1b98:	0f 90       	pop	r0
    1b9a:	cf 91       	pop	r28
    1b9c:	df 91       	pop	r29
    1b9e:	1f 91       	pop	r17
    1ba0:	0f 91       	pop	r16
    1ba2:	08 95       	ret

00001ba4 <UART_sendString>:
 * [Args]:
 * 		str_ptr: pointer to the string that will be sent
 * [Return]: None
 -----------------------------------------*/
void UART_sendString(uint8 *str_ptr)
{
    1ba4:	df 93       	push	r29
    1ba6:	cf 93       	push	r28
    1ba8:	00 d0       	rcall	.+0      	; 0x1baa <UART_sendString+0x6>
    1baa:	0f 92       	push	r0
    1bac:	cd b7       	in	r28, 0x3d	; 61
    1bae:	de b7       	in	r29, 0x3e	; 62
    1bb0:	9b 83       	std	Y+3, r25	; 0x03
    1bb2:	8a 83       	std	Y+2, r24	; 0x02
	uint8 index = 0;
    1bb4:	19 82       	std	Y+1, r1	; 0x01
    1bb6:	0e c0       	rjmp	.+28     	; 0x1bd4 <UART_sendString+0x30>
	while(str_ptr[index] != '\0')
	{
		UART_sendByte(str_ptr[index]);
    1bb8:	89 81       	ldd	r24, Y+1	; 0x01
    1bba:	28 2f       	mov	r18, r24
    1bbc:	30 e0       	ldi	r19, 0x00	; 0
    1bbe:	8a 81       	ldd	r24, Y+2	; 0x02
    1bc0:	9b 81       	ldd	r25, Y+3	; 0x03
    1bc2:	fc 01       	movw	r30, r24
    1bc4:	e2 0f       	add	r30, r18
    1bc6:	f3 1f       	adc	r31, r19
    1bc8:	80 81       	ld	r24, Z
    1bca:	0e 94 69 0d 	call	0x1ad2	; 0x1ad2 <UART_sendByte>
		index++;
    1bce:	89 81       	ldd	r24, Y+1	; 0x01
    1bd0:	8f 5f       	subi	r24, 0xFF	; 255
    1bd2:	89 83       	std	Y+1, r24	; 0x01
 * [Return]: None
 -----------------------------------------*/
void UART_sendString(uint8 *str_ptr)
{
	uint8 index = 0;
	while(str_ptr[index] != '\0')
    1bd4:	89 81       	ldd	r24, Y+1	; 0x01
    1bd6:	28 2f       	mov	r18, r24
    1bd8:	30 e0       	ldi	r19, 0x00	; 0
    1bda:	8a 81       	ldd	r24, Y+2	; 0x02
    1bdc:	9b 81       	ldd	r25, Y+3	; 0x03
    1bde:	fc 01       	movw	r30, r24
    1be0:	e2 0f       	add	r30, r18
    1be2:	f3 1f       	adc	r31, r19
    1be4:	80 81       	ld	r24, Z
    1be6:	88 23       	and	r24, r24
    1be8:	39 f7       	brne	.-50     	; 0x1bb8 <UART_sendString+0x14>
	{
		UART_sendByte(str_ptr[index]);
		index++;
	}
	/*append the special character and the null terminator, to fit UART_receiveString*/
	UART_sendByte('#');
    1bea:	83 e2       	ldi	r24, 0x23	; 35
    1bec:	0e 94 69 0d 	call	0x1ad2	; 0x1ad2 <UART_sendByte>
	UART_sendByte('\0');
    1bf0:	80 e0       	ldi	r24, 0x00	; 0
    1bf2:	0e 94 69 0d 	call	0x1ad2	; 0x1ad2 <UART_sendByte>
}
    1bf6:	0f 90       	pop	r0
    1bf8:	0f 90       	pop	r0
    1bfa:	0f 90       	pop	r0
    1bfc:	cf 91       	pop	r28
    1bfe:	df 91       	pop	r29
    1c00:	08 95       	ret

00001c02 <main>:
const Uart_ConfigType s_UartConfig = {PARITY_DISABLED, ONE_STOP_BIT, CHAR_8, 9600}; /*Configuration set of the UART*/
const Ocu_ConfigType s_OcuConfig = {OCU_PIN_DISABLE,OCU_PRESCALER_1024};			/*Configuration set of OCU*/


int main()
{
    1c02:	0f 93       	push	r16
    1c04:	1f 93       	push	r17
    1c06:	df 93       	push	r29
    1c08:	cf 93       	push	r28
    1c0a:	cd b7       	in	r28, 0x3d	; 61
    1c0c:	de b7       	in	r29, 0x3e	; 62
    1c0e:	ce 57       	subi	r28, 0x7E	; 126
    1c10:	d0 40       	sbci	r29, 0x00	; 0
    1c12:	0f b6       	in	r0, 0x3f	; 63
    1c14:	f8 94       	cli
    1c16:	de bf       	out	0x3e, r29	; 62
    1c18:	0f be       	out	0x3f, r0	; 63
    1c1a:	cd bf       	out	0x3d, r28	; 61
	/*Initialize LCD, UART, OCU*/
	LCD_init();
    1c1c:	0e 94 68 0b 	call	0x16d0	; 0x16d0 <LCD_init>
	UART_init(&s_UartConfig);
    1c20:	8c e0       	ldi	r24, 0x0C	; 12
    1c22:	92 e0       	ldi	r25, 0x02	; 2
    1c24:	0e 94 9a 0c 	call	0x1934	; 0x1934 <UART_init>
	Ocu_init(&s_OcuConfig);
    1c28:	81 e1       	ldi	r24, 0x11	; 17
    1c2a:	92 e0       	ldi	r25, 0x02	; 2
    1c2c:	0e 94 c9 0b 	call	0x1792	; 0x1792 <Ocu_init>

	/*Enable global interrupt flag*/
	SET_BIT(SREG, 7);
    1c30:	af e5       	ldi	r26, 0x5F	; 95
    1c32:	b0 e0       	ldi	r27, 0x00	; 0
    1c34:	ef e5       	ldi	r30, 0x5F	; 95
    1c36:	f0 e0       	ldi	r31, 0x00	; 0
    1c38:	80 81       	ld	r24, Z
    1c3a:	80 68       	ori	r24, 0x80	; 128
    1c3c:	8c 93       	st	X, r24

	/*Set a new password*/
	setNewPass();
    1c3e:	0e 94 33 14 	call	0x2866	; 0x2866 <setNewPass>
    1c42:	bd c0       	rjmp	.+378    	; 0x1dbe <main+0x1bc>

	/*Confirm the password. in case of password mismatch, repeat the process of setting new password and confirming*/
	while (confirmPass() == CONFIRMATION_FAILED)
	{
		/*Notify the user about the confirmation failure*/
		LCD_goToRowCol(0,0);
    1c44:	80 e0       	ldi	r24, 0x00	; 0
    1c46:	60 e0       	ldi	r22, 0x00	; 0
    1c48:	0e 94 90 0b 	call	0x1720	; 0x1720 <LCD_goToRowCol>
		LCD_displayString("Confirmation Failed           ");
    1c4c:	80 e6       	ldi	r24, 0x60	; 96
    1c4e:	90 e0       	ldi	r25, 0x00	; 0
    1c50:	0e 94 46 0a 	call	0x148c	; 0x148c <LCD_displayString>
    1c54:	fe 01       	movw	r30, r28
    1c56:	e5 58       	subi	r30, 0x85	; 133
    1c58:	ff 4f       	sbci	r31, 0xFF	; 255
    1c5a:	80 e0       	ldi	r24, 0x00	; 0
    1c5c:	90 e0       	ldi	r25, 0x00	; 0
    1c5e:	aa ef       	ldi	r26, 0xFA	; 250
    1c60:	b3 e4       	ldi	r27, 0x43	; 67
    1c62:	80 83       	st	Z, r24
    1c64:	91 83       	std	Z+1, r25	; 0x01
    1c66:	a2 83       	std	Z+2, r26	; 0x02
    1c68:	b3 83       	std	Z+3, r27	; 0x03
 */
void
_delay_ms(double __ms)
{
	uint16_t __ticks;
	double __tmp = ((F_CPU) / 4e3) * __ms;
    1c6a:	8e 01       	movw	r16, r28
    1c6c:	09 58       	subi	r16, 0x89	; 137
    1c6e:	1f 4f       	sbci	r17, 0xFF	; 255
    1c70:	fe 01       	movw	r30, r28
    1c72:	e5 58       	subi	r30, 0x85	; 133
    1c74:	ff 4f       	sbci	r31, 0xFF	; 255
    1c76:	60 81       	ld	r22, Z
    1c78:	71 81       	ldd	r23, Z+1	; 0x01
    1c7a:	82 81       	ldd	r24, Z+2	; 0x02
    1c7c:	93 81       	ldd	r25, Z+3	; 0x03
    1c7e:	20 e0       	ldi	r18, 0x00	; 0
    1c80:	30 e0       	ldi	r19, 0x00	; 0
    1c82:	4a ef       	ldi	r20, 0xFA	; 250
    1c84:	54 e4       	ldi	r21, 0x44	; 68
    1c86:	0e 94 1f 02 	call	0x43e	; 0x43e <__mulsf3>
    1c8a:	dc 01       	movw	r26, r24
    1c8c:	cb 01       	movw	r24, r22
    1c8e:	f8 01       	movw	r30, r16
    1c90:	80 83       	st	Z, r24
    1c92:	91 83       	std	Z+1, r25	; 0x01
    1c94:	a2 83       	std	Z+2, r26	; 0x02
    1c96:	b3 83       	std	Z+3, r27	; 0x03
	if (__tmp < 1.0)
    1c98:	fe 01       	movw	r30, r28
    1c9a:	e9 58       	subi	r30, 0x89	; 137
    1c9c:	ff 4f       	sbci	r31, 0xFF	; 255
    1c9e:	60 81       	ld	r22, Z
    1ca0:	71 81       	ldd	r23, Z+1	; 0x01
    1ca2:	82 81       	ldd	r24, Z+2	; 0x02
    1ca4:	93 81       	ldd	r25, Z+3	; 0x03
    1ca6:	20 e0       	ldi	r18, 0x00	; 0
    1ca8:	30 e0       	ldi	r19, 0x00	; 0
    1caa:	40 e8       	ldi	r20, 0x80	; 128
    1cac:	5f e3       	ldi	r21, 0x3F	; 63
    1cae:	0e 94 79 03 	call	0x6f2	; 0x6f2 <__ltsf2>
    1cb2:	88 23       	and	r24, r24
    1cb4:	44 f4       	brge	.+16     	; 0x1cc6 <main+0xc4>
		__ticks = 1;
    1cb6:	fe 01       	movw	r30, r28
    1cb8:	eb 58       	subi	r30, 0x8B	; 139
    1cba:	ff 4f       	sbci	r31, 0xFF	; 255
    1cbc:	81 e0       	ldi	r24, 0x01	; 1
    1cbe:	90 e0       	ldi	r25, 0x00	; 0
    1cc0:	91 83       	std	Z+1, r25	; 0x01
    1cc2:	80 83       	st	Z, r24
    1cc4:	64 c0       	rjmp	.+200    	; 0x1d8e <main+0x18c>
	else if (__tmp > 65535)
    1cc6:	fe 01       	movw	r30, r28
    1cc8:	e9 58       	subi	r30, 0x89	; 137
    1cca:	ff 4f       	sbci	r31, 0xFF	; 255
    1ccc:	60 81       	ld	r22, Z
    1cce:	71 81       	ldd	r23, Z+1	; 0x01
    1cd0:	82 81       	ldd	r24, Z+2	; 0x02
    1cd2:	93 81       	ldd	r25, Z+3	; 0x03
    1cd4:	20 e0       	ldi	r18, 0x00	; 0
    1cd6:	3f ef       	ldi	r19, 0xFF	; 255
    1cd8:	4f e7       	ldi	r20, 0x7F	; 127
    1cda:	57 e4       	ldi	r21, 0x47	; 71
    1cdc:	0e 94 19 03 	call	0x632	; 0x632 <__gtsf2>
    1ce0:	18 16       	cp	r1, r24
    1ce2:	0c f0       	brlt	.+2      	; 0x1ce6 <main+0xe4>
    1ce4:	43 c0       	rjmp	.+134    	; 0x1d6c <main+0x16a>
	{
		//	__ticks = requested delay in 1/10 ms
		__ticks = (uint16_t) (__ms * 10.0);
    1ce6:	fe 01       	movw	r30, r28
    1ce8:	e5 58       	subi	r30, 0x85	; 133
    1cea:	ff 4f       	sbci	r31, 0xFF	; 255
    1cec:	60 81       	ld	r22, Z
    1cee:	71 81       	ldd	r23, Z+1	; 0x01
    1cf0:	82 81       	ldd	r24, Z+2	; 0x02
    1cf2:	93 81       	ldd	r25, Z+3	; 0x03
    1cf4:	20 e0       	ldi	r18, 0x00	; 0
    1cf6:	30 e0       	ldi	r19, 0x00	; 0
    1cf8:	40 e2       	ldi	r20, 0x20	; 32
    1cfa:	51 e4       	ldi	r21, 0x41	; 65
    1cfc:	0e 94 1f 02 	call	0x43e	; 0x43e <__mulsf3>
    1d00:	dc 01       	movw	r26, r24
    1d02:	cb 01       	movw	r24, r22
    1d04:	8e 01       	movw	r16, r28
    1d06:	0b 58       	subi	r16, 0x8B	; 139
    1d08:	1f 4f       	sbci	r17, 0xFF	; 255
    1d0a:	bc 01       	movw	r22, r24
    1d0c:	cd 01       	movw	r24, r26
    1d0e:	0e 94 49 00 	call	0x92	; 0x92 <__fixunssfsi>
    1d12:	dc 01       	movw	r26, r24
    1d14:	cb 01       	movw	r24, r22
    1d16:	f8 01       	movw	r30, r16
    1d18:	91 83       	std	Z+1, r25	; 0x01
    1d1a:	80 83       	st	Z, r24
    1d1c:	1f c0       	rjmp	.+62     	; 0x1d5c <main+0x15a>
    1d1e:	fe 01       	movw	r30, r28
    1d20:	ed 58       	subi	r30, 0x8D	; 141
    1d22:	ff 4f       	sbci	r31, 0xFF	; 255
    1d24:	88 ec       	ldi	r24, 0xC8	; 200
    1d26:	90 e0       	ldi	r25, 0x00	; 0
    1d28:	91 83       	std	Z+1, r25	; 0x01
    1d2a:	80 83       	st	Z, r24
    1d2c:	fe 01       	movw	r30, r28
    1d2e:	ed 58       	subi	r30, 0x8D	; 141
    1d30:	ff 4f       	sbci	r31, 0xFF	; 255
    1d32:	80 81       	ld	r24, Z
    1d34:	91 81       	ldd	r25, Z+1	; 0x01
    1d36:	01 97       	sbiw	r24, 0x01	; 1
    1d38:	f1 f7       	brne	.-4      	; 0x1d36 <main+0x134>
    1d3a:	fe 01       	movw	r30, r28
    1d3c:	ed 58       	subi	r30, 0x8D	; 141
    1d3e:	ff 4f       	sbci	r31, 0xFF	; 255
    1d40:	91 83       	std	Z+1, r25	; 0x01
    1d42:	80 83       	st	Z, r24
		while(__ticks)
		{
			// wait 1/10 ms
			_delay_loop_2(((F_CPU) / 4e3) / 10);
			__ticks --;
    1d44:	de 01       	movw	r26, r28
    1d46:	ab 58       	subi	r26, 0x8B	; 139
    1d48:	bf 4f       	sbci	r27, 0xFF	; 255
    1d4a:	fe 01       	movw	r30, r28
    1d4c:	eb 58       	subi	r30, 0x8B	; 139
    1d4e:	ff 4f       	sbci	r31, 0xFF	; 255
    1d50:	80 81       	ld	r24, Z
    1d52:	91 81       	ldd	r25, Z+1	; 0x01
    1d54:	01 97       	sbiw	r24, 0x01	; 1
    1d56:	11 96       	adiw	r26, 0x01	; 1
    1d58:	9c 93       	st	X, r25
    1d5a:	8e 93       	st	-X, r24
		__ticks = 1;
	else if (__tmp > 65535)
	{
		//	__ticks = requested delay in 1/10 ms
		__ticks = (uint16_t) (__ms * 10.0);
		while(__ticks)
    1d5c:	fe 01       	movw	r30, r28
    1d5e:	eb 58       	subi	r30, 0x8B	; 139
    1d60:	ff 4f       	sbci	r31, 0xFF	; 255
    1d62:	80 81       	ld	r24, Z
    1d64:	91 81       	ldd	r25, Z+1	; 0x01
    1d66:	00 97       	sbiw	r24, 0x00	; 0
    1d68:	d1 f6       	brne	.-76     	; 0x1d1e <main+0x11c>
    1d6a:	27 c0       	rjmp	.+78     	; 0x1dba <main+0x1b8>
			__ticks --;
		}
		return;
	}
	else
		__ticks = (uint16_t)__tmp;
    1d6c:	8e 01       	movw	r16, r28
    1d6e:	0b 58       	subi	r16, 0x8B	; 139
    1d70:	1f 4f       	sbci	r17, 0xFF	; 255
    1d72:	fe 01       	movw	r30, r28
    1d74:	e9 58       	subi	r30, 0x89	; 137
    1d76:	ff 4f       	sbci	r31, 0xFF	; 255
    1d78:	60 81       	ld	r22, Z
    1d7a:	71 81       	ldd	r23, Z+1	; 0x01
    1d7c:	82 81       	ldd	r24, Z+2	; 0x02
    1d7e:	93 81       	ldd	r25, Z+3	; 0x03
    1d80:	0e 94 49 00 	call	0x92	; 0x92 <__fixunssfsi>
    1d84:	dc 01       	movw	r26, r24
    1d86:	cb 01       	movw	r24, r22
    1d88:	f8 01       	movw	r30, r16
    1d8a:	91 83       	std	Z+1, r25	; 0x01
    1d8c:	80 83       	st	Z, r24
    1d8e:	de 01       	movw	r26, r28
    1d90:	af 58       	subi	r26, 0x8F	; 143
    1d92:	bf 4f       	sbci	r27, 0xFF	; 255
    1d94:	fe 01       	movw	r30, r28
    1d96:	eb 58       	subi	r30, 0x8B	; 139
    1d98:	ff 4f       	sbci	r31, 0xFF	; 255
    1d9a:	80 81       	ld	r24, Z
    1d9c:	91 81       	ldd	r25, Z+1	; 0x01
    1d9e:	8d 93       	st	X+, r24
    1da0:	9c 93       	st	X, r25
    1da2:	fe 01       	movw	r30, r28
    1da4:	ef 58       	subi	r30, 0x8F	; 143
    1da6:	ff 4f       	sbci	r31, 0xFF	; 255
    1da8:	80 81       	ld	r24, Z
    1daa:	91 81       	ldd	r25, Z+1	; 0x01
    1dac:	01 97       	sbiw	r24, 0x01	; 1
    1dae:	f1 f7       	brne	.-4      	; 0x1dac <main+0x1aa>
    1db0:	fe 01       	movw	r30, r28
    1db2:	ef 58       	subi	r30, 0x8F	; 143
    1db4:	ff 4f       	sbci	r31, 0xFF	; 255
    1db6:	91 83       	std	Z+1, r25	; 0x01
    1db8:	80 83       	st	Z, r24
		_delay_ms(500);

		/*Set a new password*/
		setNewPass();
    1dba:	0e 94 33 14 	call	0x2866	; 0x2866 <setNewPass>

	/*Set a new password*/
	setNewPass();

	/*Confirm the password. in case of password mismatch, repeat the process of setting new password and confirming*/
	while (confirmPass() == CONFIRMATION_FAILED)
    1dbe:	0e 94 6e 15 	call	0x2adc	; 0x2adc <confirmPass>
    1dc2:	88 23       	and	r24, r24
    1dc4:	09 f4       	brne	.+2      	; 0x1dc8 <main+0x1c6>
    1dc6:	3e cf       	rjmp	.-388    	; 0x1c44 <main+0x42>
		/*Set a new password*/
		setNewPass();
	}

	/*The while loop terminates in case of password match*/
	LCD_goToRowCol(0,0);
    1dc8:	80 e0       	ldi	r24, 0x00	; 0
    1dca:	60 e0       	ldi	r22, 0x00	; 0
    1dcc:	0e 94 90 0b 	call	0x1720	; 0x1720 <LCD_goToRowCol>
	LCD_displayString("Password Confirmed        ");
    1dd0:	8f e7       	ldi	r24, 0x7F	; 127
    1dd2:	90 e0       	ldi	r25, 0x00	; 0
    1dd4:	0e 94 46 0a 	call	0x148c	; 0x148c <LCD_displayString>
    1dd8:	fe 01       	movw	r30, r28
    1dda:	e3 59       	subi	r30, 0x93	; 147
    1ddc:	ff 4f       	sbci	r31, 0xFF	; 255
    1dde:	80 e0       	ldi	r24, 0x00	; 0
    1de0:	90 e0       	ldi	r25, 0x00	; 0
    1de2:	aa ef       	ldi	r26, 0xFA	; 250
    1de4:	b3 e4       	ldi	r27, 0x43	; 67
    1de6:	80 83       	st	Z, r24
    1de8:	91 83       	std	Z+1, r25	; 0x01
    1dea:	a2 83       	std	Z+2, r26	; 0x02
    1dec:	b3 83       	std	Z+3, r27	; 0x03
 */
void
_delay_ms(double __ms)
{
	uint16_t __ticks;
	double __tmp = ((F_CPU) / 4e3) * __ms;
    1dee:	8e 01       	movw	r16, r28
    1df0:	07 59       	subi	r16, 0x97	; 151
    1df2:	1f 4f       	sbci	r17, 0xFF	; 255
    1df4:	fe 01       	movw	r30, r28
    1df6:	e3 59       	subi	r30, 0x93	; 147
    1df8:	ff 4f       	sbci	r31, 0xFF	; 255
    1dfa:	60 81       	ld	r22, Z
    1dfc:	71 81       	ldd	r23, Z+1	; 0x01
    1dfe:	82 81       	ldd	r24, Z+2	; 0x02
    1e00:	93 81       	ldd	r25, Z+3	; 0x03
    1e02:	20 e0       	ldi	r18, 0x00	; 0
    1e04:	30 e0       	ldi	r19, 0x00	; 0
    1e06:	4a ef       	ldi	r20, 0xFA	; 250
    1e08:	54 e4       	ldi	r21, 0x44	; 68
    1e0a:	0e 94 1f 02 	call	0x43e	; 0x43e <__mulsf3>
    1e0e:	dc 01       	movw	r26, r24
    1e10:	cb 01       	movw	r24, r22
    1e12:	f8 01       	movw	r30, r16
    1e14:	80 83       	st	Z, r24
    1e16:	91 83       	std	Z+1, r25	; 0x01
    1e18:	a2 83       	std	Z+2, r26	; 0x02
    1e1a:	b3 83       	std	Z+3, r27	; 0x03
	if (__tmp < 1.0)
    1e1c:	fe 01       	movw	r30, r28
    1e1e:	e7 59       	subi	r30, 0x97	; 151
    1e20:	ff 4f       	sbci	r31, 0xFF	; 255
    1e22:	60 81       	ld	r22, Z
    1e24:	71 81       	ldd	r23, Z+1	; 0x01
    1e26:	82 81       	ldd	r24, Z+2	; 0x02
    1e28:	93 81       	ldd	r25, Z+3	; 0x03
    1e2a:	20 e0       	ldi	r18, 0x00	; 0
    1e2c:	30 e0       	ldi	r19, 0x00	; 0
    1e2e:	40 e8       	ldi	r20, 0x80	; 128
    1e30:	5f e3       	ldi	r21, 0x3F	; 63
    1e32:	0e 94 79 03 	call	0x6f2	; 0x6f2 <__ltsf2>
    1e36:	88 23       	and	r24, r24
    1e38:	44 f4       	brge	.+16     	; 0x1e4a <main+0x248>
		__ticks = 1;
    1e3a:	fe 01       	movw	r30, r28
    1e3c:	e9 59       	subi	r30, 0x99	; 153
    1e3e:	ff 4f       	sbci	r31, 0xFF	; 255
    1e40:	81 e0       	ldi	r24, 0x01	; 1
    1e42:	90 e0       	ldi	r25, 0x00	; 0
    1e44:	91 83       	std	Z+1, r25	; 0x01
    1e46:	80 83       	st	Z, r24
    1e48:	64 c0       	rjmp	.+200    	; 0x1f12 <main+0x310>
	else if (__tmp > 65535)
    1e4a:	fe 01       	movw	r30, r28
    1e4c:	e7 59       	subi	r30, 0x97	; 151
    1e4e:	ff 4f       	sbci	r31, 0xFF	; 255
    1e50:	60 81       	ld	r22, Z
    1e52:	71 81       	ldd	r23, Z+1	; 0x01
    1e54:	82 81       	ldd	r24, Z+2	; 0x02
    1e56:	93 81       	ldd	r25, Z+3	; 0x03
    1e58:	20 e0       	ldi	r18, 0x00	; 0
    1e5a:	3f ef       	ldi	r19, 0xFF	; 255
    1e5c:	4f e7       	ldi	r20, 0x7F	; 127
    1e5e:	57 e4       	ldi	r21, 0x47	; 71
    1e60:	0e 94 19 03 	call	0x632	; 0x632 <__gtsf2>
    1e64:	18 16       	cp	r1, r24
    1e66:	0c f0       	brlt	.+2      	; 0x1e6a <main+0x268>
    1e68:	43 c0       	rjmp	.+134    	; 0x1ef0 <main+0x2ee>
	{
		//	__ticks = requested delay in 1/10 ms
		__ticks = (uint16_t) (__ms * 10.0);
    1e6a:	fe 01       	movw	r30, r28
    1e6c:	e3 59       	subi	r30, 0x93	; 147
    1e6e:	ff 4f       	sbci	r31, 0xFF	; 255
    1e70:	60 81       	ld	r22, Z
    1e72:	71 81       	ldd	r23, Z+1	; 0x01
    1e74:	82 81       	ldd	r24, Z+2	; 0x02
    1e76:	93 81       	ldd	r25, Z+3	; 0x03
    1e78:	20 e0       	ldi	r18, 0x00	; 0
    1e7a:	30 e0       	ldi	r19, 0x00	; 0
    1e7c:	40 e2       	ldi	r20, 0x20	; 32
    1e7e:	51 e4       	ldi	r21, 0x41	; 65
    1e80:	0e 94 1f 02 	call	0x43e	; 0x43e <__mulsf3>
    1e84:	dc 01       	movw	r26, r24
    1e86:	cb 01       	movw	r24, r22
    1e88:	8e 01       	movw	r16, r28
    1e8a:	09 59       	subi	r16, 0x99	; 153
    1e8c:	1f 4f       	sbci	r17, 0xFF	; 255
    1e8e:	bc 01       	movw	r22, r24
    1e90:	cd 01       	movw	r24, r26
    1e92:	0e 94 49 00 	call	0x92	; 0x92 <__fixunssfsi>
    1e96:	dc 01       	movw	r26, r24
    1e98:	cb 01       	movw	r24, r22
    1e9a:	f8 01       	movw	r30, r16
    1e9c:	91 83       	std	Z+1, r25	; 0x01
    1e9e:	80 83       	st	Z, r24
    1ea0:	1f c0       	rjmp	.+62     	; 0x1ee0 <main+0x2de>
    1ea2:	fe 01       	movw	r30, r28
    1ea4:	eb 59       	subi	r30, 0x9B	; 155
    1ea6:	ff 4f       	sbci	r31, 0xFF	; 255
    1ea8:	88 ec       	ldi	r24, 0xC8	; 200
    1eaa:	90 e0       	ldi	r25, 0x00	; 0
    1eac:	91 83       	std	Z+1, r25	; 0x01
    1eae:	80 83       	st	Z, r24
    1eb0:	fe 01       	movw	r30, r28
    1eb2:	eb 59       	subi	r30, 0x9B	; 155
    1eb4:	ff 4f       	sbci	r31, 0xFF	; 255
    1eb6:	80 81       	ld	r24, Z
    1eb8:	91 81       	ldd	r25, Z+1	; 0x01
    1eba:	01 97       	sbiw	r24, 0x01	; 1
    1ebc:	f1 f7       	brne	.-4      	; 0x1eba <main+0x2b8>
    1ebe:	fe 01       	movw	r30, r28
    1ec0:	eb 59       	subi	r30, 0x9B	; 155
    1ec2:	ff 4f       	sbci	r31, 0xFF	; 255
    1ec4:	91 83       	std	Z+1, r25	; 0x01
    1ec6:	80 83       	st	Z, r24
		while(__ticks)
		{
			// wait 1/10 ms
			_delay_loop_2(((F_CPU) / 4e3) / 10);
			__ticks --;
    1ec8:	de 01       	movw	r26, r28
    1eca:	a9 59       	subi	r26, 0x99	; 153
    1ecc:	bf 4f       	sbci	r27, 0xFF	; 255
    1ece:	fe 01       	movw	r30, r28
    1ed0:	e9 59       	subi	r30, 0x99	; 153
    1ed2:	ff 4f       	sbci	r31, 0xFF	; 255
    1ed4:	80 81       	ld	r24, Z
    1ed6:	91 81       	ldd	r25, Z+1	; 0x01
    1ed8:	01 97       	sbiw	r24, 0x01	; 1
    1eda:	11 96       	adiw	r26, 0x01	; 1
    1edc:	9c 93       	st	X, r25
    1ede:	8e 93       	st	-X, r24
		__ticks = 1;
	else if (__tmp > 65535)
	{
		//	__ticks = requested delay in 1/10 ms
		__ticks = (uint16_t) (__ms * 10.0);
		while(__ticks)
    1ee0:	fe 01       	movw	r30, r28
    1ee2:	e9 59       	subi	r30, 0x99	; 153
    1ee4:	ff 4f       	sbci	r31, 0xFF	; 255
    1ee6:	80 81       	ld	r24, Z
    1ee8:	91 81       	ldd	r25, Z+1	; 0x01
    1eea:	00 97       	sbiw	r24, 0x00	; 0
    1eec:	d1 f6       	brne	.-76     	; 0x1ea2 <main+0x2a0>
    1eee:	27 c0       	rjmp	.+78     	; 0x1f3e <main+0x33c>
			__ticks --;
		}
		return;
	}
	else
		__ticks = (uint16_t)__tmp;
    1ef0:	8e 01       	movw	r16, r28
    1ef2:	09 59       	subi	r16, 0x99	; 153
    1ef4:	1f 4f       	sbci	r17, 0xFF	; 255
    1ef6:	fe 01       	movw	r30, r28
    1ef8:	e7 59       	subi	r30, 0x97	; 151
    1efa:	ff 4f       	sbci	r31, 0xFF	; 255
    1efc:	60 81       	ld	r22, Z
    1efe:	71 81       	ldd	r23, Z+1	; 0x01
    1f00:	82 81       	ldd	r24, Z+2	; 0x02
    1f02:	93 81       	ldd	r25, Z+3	; 0x03
    1f04:	0e 94 49 00 	call	0x92	; 0x92 <__fixunssfsi>
    1f08:	dc 01       	movw	r26, r24
    1f0a:	cb 01       	movw	r24, r22
    1f0c:	f8 01       	movw	r30, r16
    1f0e:	91 83       	std	Z+1, r25	; 0x01
    1f10:	80 83       	st	Z, r24
    1f12:	de 01       	movw	r26, r28
    1f14:	ad 59       	subi	r26, 0x9D	; 157
    1f16:	bf 4f       	sbci	r27, 0xFF	; 255
    1f18:	fe 01       	movw	r30, r28
    1f1a:	e9 59       	subi	r30, 0x99	; 153
    1f1c:	ff 4f       	sbci	r31, 0xFF	; 255
    1f1e:	80 81       	ld	r24, Z
    1f20:	91 81       	ldd	r25, Z+1	; 0x01
    1f22:	8d 93       	st	X+, r24
    1f24:	9c 93       	st	X, r25
    1f26:	fe 01       	movw	r30, r28
    1f28:	ed 59       	subi	r30, 0x9D	; 157
    1f2a:	ff 4f       	sbci	r31, 0xFF	; 255
    1f2c:	80 81       	ld	r24, Z
    1f2e:	91 81       	ldd	r25, Z+1	; 0x01
    1f30:	01 97       	sbiw	r24, 0x01	; 1
    1f32:	f1 f7       	brne	.-4      	; 0x1f30 <main+0x32e>
    1f34:	fe 01       	movw	r30, r28
    1f36:	ed 59       	subi	r30, 0x9D	; 157
    1f38:	ff 4f       	sbci	r31, 0xFF	; 255
    1f3a:	91 83       	std	Z+1, r25	; 0x01
    1f3c:	80 83       	st	Z, r24


	while(1)
	{
		/*Display the available options to the user*/
		LCD_goToRowCol(0,0);
    1f3e:	80 e0       	ldi	r24, 0x00	; 0
    1f40:	60 e0       	ldi	r22, 0x00	; 0
    1f42:	0e 94 90 0b 	call	0x1720	; 0x1720 <LCD_goToRowCol>
		LCD_displayString("'+' : Open Door               ");
    1f46:	8a e9       	ldi	r24, 0x9A	; 154
    1f48:	90 e0       	ldi	r25, 0x00	; 0
    1f4a:	0e 94 46 0a 	call	0x148c	; 0x148c <LCD_displayString>
		LCD_goToRowCol(1,0);
    1f4e:	81 e0       	ldi	r24, 0x01	; 1
    1f50:	60 e0       	ldi	r22, 0x00	; 0
    1f52:	0e 94 90 0b 	call	0x1720	; 0x1720 <LCD_goToRowCol>
		LCD_displayString("'-' : Change Password         ");
    1f56:	89 eb       	ldi	r24, 0xB9	; 185
    1f58:	90 e0       	ldi	r25, 0x00	; 0
    1f5a:	0e 94 46 0a 	call	0x148c	; 0x148c <LCD_displayString>

		key = keypad_getPressedKey();
    1f5e:	0e 94 ab 16 	call	0x2d56	; 0x2d56 <keypad_getPressedKey>
    1f62:	80 93 29 02 	sts	0x0229, r24
    1f66:	b8 c0       	rjmp	.+368    	; 0x20d8 <main+0x4d6>
		/*Wait until the user chooses one of the available options*/
		while(key != '+' && key != '-')
		{
			key = keypad_getPressedKey();
    1f68:	0e 94 ab 16 	call	0x2d56	; 0x2d56 <keypad_getPressedKey>
    1f6c:	80 93 29 02 	sts	0x0229, r24
    1f70:	fe 01       	movw	r30, r28
    1f72:	e1 5a       	subi	r30, 0xA1	; 161
    1f74:	ff 4f       	sbci	r31, 0xFF	; 255
    1f76:	80 e0       	ldi	r24, 0x00	; 0
    1f78:	90 e0       	ldi	r25, 0x00	; 0
    1f7a:	a6 e9       	ldi	r26, 0x96	; 150
    1f7c:	b3 e4       	ldi	r27, 0x43	; 67
    1f7e:	80 83       	st	Z, r24
    1f80:	91 83       	std	Z+1, r25	; 0x01
    1f82:	a2 83       	std	Z+2, r26	; 0x02
    1f84:	b3 83       	std	Z+3, r27	; 0x03
 */
void
_delay_ms(double __ms)
{
	uint16_t __ticks;
	double __tmp = ((F_CPU) / 4e3) * __ms;
    1f86:	8e 01       	movw	r16, r28
    1f88:	05 5a       	subi	r16, 0xA5	; 165
    1f8a:	1f 4f       	sbci	r17, 0xFF	; 255
    1f8c:	fe 01       	movw	r30, r28
    1f8e:	e1 5a       	subi	r30, 0xA1	; 161
    1f90:	ff 4f       	sbci	r31, 0xFF	; 255
    1f92:	60 81       	ld	r22, Z
    1f94:	71 81       	ldd	r23, Z+1	; 0x01
    1f96:	82 81       	ldd	r24, Z+2	; 0x02
    1f98:	93 81       	ldd	r25, Z+3	; 0x03
    1f9a:	20 e0       	ldi	r18, 0x00	; 0
    1f9c:	30 e0       	ldi	r19, 0x00	; 0
    1f9e:	4a ef       	ldi	r20, 0xFA	; 250
    1fa0:	54 e4       	ldi	r21, 0x44	; 68
    1fa2:	0e 94 1f 02 	call	0x43e	; 0x43e <__mulsf3>
    1fa6:	dc 01       	movw	r26, r24
    1fa8:	cb 01       	movw	r24, r22
    1faa:	f8 01       	movw	r30, r16
    1fac:	80 83       	st	Z, r24
    1fae:	91 83       	std	Z+1, r25	; 0x01
    1fb0:	a2 83       	std	Z+2, r26	; 0x02
    1fb2:	b3 83       	std	Z+3, r27	; 0x03
	if (__tmp < 1.0)
    1fb4:	fe 01       	movw	r30, r28
    1fb6:	e5 5a       	subi	r30, 0xA5	; 165
    1fb8:	ff 4f       	sbci	r31, 0xFF	; 255
    1fba:	60 81       	ld	r22, Z
    1fbc:	71 81       	ldd	r23, Z+1	; 0x01
    1fbe:	82 81       	ldd	r24, Z+2	; 0x02
    1fc0:	93 81       	ldd	r25, Z+3	; 0x03
    1fc2:	20 e0       	ldi	r18, 0x00	; 0
    1fc4:	30 e0       	ldi	r19, 0x00	; 0
    1fc6:	40 e8       	ldi	r20, 0x80	; 128
    1fc8:	5f e3       	ldi	r21, 0x3F	; 63
    1fca:	0e 94 79 03 	call	0x6f2	; 0x6f2 <__ltsf2>
    1fce:	88 23       	and	r24, r24
    1fd0:	44 f4       	brge	.+16     	; 0x1fe2 <main+0x3e0>
		__ticks = 1;
    1fd2:	fe 01       	movw	r30, r28
    1fd4:	e7 5a       	subi	r30, 0xA7	; 167
    1fd6:	ff 4f       	sbci	r31, 0xFF	; 255
    1fd8:	81 e0       	ldi	r24, 0x01	; 1
    1fda:	90 e0       	ldi	r25, 0x00	; 0
    1fdc:	91 83       	std	Z+1, r25	; 0x01
    1fde:	80 83       	st	Z, r24
    1fe0:	64 c0       	rjmp	.+200    	; 0x20aa <main+0x4a8>
	else if (__tmp > 65535)
    1fe2:	fe 01       	movw	r30, r28
    1fe4:	e5 5a       	subi	r30, 0xA5	; 165
    1fe6:	ff 4f       	sbci	r31, 0xFF	; 255
    1fe8:	60 81       	ld	r22, Z
    1fea:	71 81       	ldd	r23, Z+1	; 0x01
    1fec:	82 81       	ldd	r24, Z+2	; 0x02
    1fee:	93 81       	ldd	r25, Z+3	; 0x03
    1ff0:	20 e0       	ldi	r18, 0x00	; 0
    1ff2:	3f ef       	ldi	r19, 0xFF	; 255
    1ff4:	4f e7       	ldi	r20, 0x7F	; 127
    1ff6:	57 e4       	ldi	r21, 0x47	; 71
    1ff8:	0e 94 19 03 	call	0x632	; 0x632 <__gtsf2>
    1ffc:	18 16       	cp	r1, r24
    1ffe:	0c f0       	brlt	.+2      	; 0x2002 <main+0x400>
    2000:	43 c0       	rjmp	.+134    	; 0x2088 <main+0x486>
	{
		//	__ticks = requested delay in 1/10 ms
		__ticks = (uint16_t) (__ms * 10.0);
    2002:	fe 01       	movw	r30, r28
    2004:	e1 5a       	subi	r30, 0xA1	; 161
    2006:	ff 4f       	sbci	r31, 0xFF	; 255
    2008:	60 81       	ld	r22, Z
    200a:	71 81       	ldd	r23, Z+1	; 0x01
    200c:	82 81       	ldd	r24, Z+2	; 0x02
    200e:	93 81       	ldd	r25, Z+3	; 0x03
    2010:	20 e0       	ldi	r18, 0x00	; 0
    2012:	30 e0       	ldi	r19, 0x00	; 0
    2014:	40 e2       	ldi	r20, 0x20	; 32
    2016:	51 e4       	ldi	r21, 0x41	; 65
    2018:	0e 94 1f 02 	call	0x43e	; 0x43e <__mulsf3>
    201c:	dc 01       	movw	r26, r24
    201e:	cb 01       	movw	r24, r22
    2020:	8e 01       	movw	r16, r28
    2022:	07 5a       	subi	r16, 0xA7	; 167
    2024:	1f 4f       	sbci	r17, 0xFF	; 255
    2026:	bc 01       	movw	r22, r24
    2028:	cd 01       	movw	r24, r26
    202a:	0e 94 49 00 	call	0x92	; 0x92 <__fixunssfsi>
    202e:	dc 01       	movw	r26, r24
    2030:	cb 01       	movw	r24, r22
    2032:	f8 01       	movw	r30, r16
    2034:	91 83       	std	Z+1, r25	; 0x01
    2036:	80 83       	st	Z, r24
    2038:	1f c0       	rjmp	.+62     	; 0x2078 <main+0x476>
    203a:	fe 01       	movw	r30, r28
    203c:	e9 5a       	subi	r30, 0xA9	; 169
    203e:	ff 4f       	sbci	r31, 0xFF	; 255
    2040:	88 ec       	ldi	r24, 0xC8	; 200
    2042:	90 e0       	ldi	r25, 0x00	; 0
    2044:	91 83       	std	Z+1, r25	; 0x01
    2046:	80 83       	st	Z, r24
    2048:	fe 01       	movw	r30, r28
    204a:	e9 5a       	subi	r30, 0xA9	; 169
    204c:	ff 4f       	sbci	r31, 0xFF	; 255
    204e:	80 81       	ld	r24, Z
    2050:	91 81       	ldd	r25, Z+1	; 0x01
    2052:	01 97       	sbiw	r24, 0x01	; 1
    2054:	f1 f7       	brne	.-4      	; 0x2052 <main+0x450>
    2056:	fe 01       	movw	r30, r28
    2058:	e9 5a       	subi	r30, 0xA9	; 169
    205a:	ff 4f       	sbci	r31, 0xFF	; 255
    205c:	91 83       	std	Z+1, r25	; 0x01
    205e:	80 83       	st	Z, r24
		while(__ticks)
		{
			// wait 1/10 ms
			_delay_loop_2(((F_CPU) / 4e3) / 10);
			__ticks --;
    2060:	de 01       	movw	r26, r28
    2062:	a7 5a       	subi	r26, 0xA7	; 167
    2064:	bf 4f       	sbci	r27, 0xFF	; 255
    2066:	fe 01       	movw	r30, r28
    2068:	e7 5a       	subi	r30, 0xA7	; 167
    206a:	ff 4f       	sbci	r31, 0xFF	; 255
    206c:	80 81       	ld	r24, Z
    206e:	91 81       	ldd	r25, Z+1	; 0x01
    2070:	01 97       	sbiw	r24, 0x01	; 1
    2072:	11 96       	adiw	r26, 0x01	; 1
    2074:	9c 93       	st	X, r25
    2076:	8e 93       	st	-X, r24
		__ticks = 1;
	else if (__tmp > 65535)
	{
		//	__ticks = requested delay in 1/10 ms
		__ticks = (uint16_t) (__ms * 10.0);
		while(__ticks)
    2078:	fe 01       	movw	r30, r28
    207a:	e7 5a       	subi	r30, 0xA7	; 167
    207c:	ff 4f       	sbci	r31, 0xFF	; 255
    207e:	80 81       	ld	r24, Z
    2080:	91 81       	ldd	r25, Z+1	; 0x01
    2082:	00 97       	sbiw	r24, 0x00	; 0
    2084:	d1 f6       	brne	.-76     	; 0x203a <main+0x438>
    2086:	28 c0       	rjmp	.+80     	; 0x20d8 <main+0x4d6>
			__ticks --;
		}
		return;
	}
	else
		__ticks = (uint16_t)__tmp;
    2088:	8e 01       	movw	r16, r28
    208a:	07 5a       	subi	r16, 0xA7	; 167
    208c:	1f 4f       	sbci	r17, 0xFF	; 255
    208e:	fe 01       	movw	r30, r28
    2090:	e5 5a       	subi	r30, 0xA5	; 165
    2092:	ff 4f       	sbci	r31, 0xFF	; 255
    2094:	60 81       	ld	r22, Z
    2096:	71 81       	ldd	r23, Z+1	; 0x01
    2098:	82 81       	ldd	r24, Z+2	; 0x02
    209a:	93 81       	ldd	r25, Z+3	; 0x03
    209c:	0e 94 49 00 	call	0x92	; 0x92 <__fixunssfsi>
    20a0:	dc 01       	movw	r26, r24
    20a2:	cb 01       	movw	r24, r22
    20a4:	f8 01       	movw	r30, r16
    20a6:	91 83       	std	Z+1, r25	; 0x01
    20a8:	80 83       	st	Z, r24
    20aa:	de 01       	movw	r26, r28
    20ac:	ab 5a       	subi	r26, 0xAB	; 171
    20ae:	bf 4f       	sbci	r27, 0xFF	; 255
    20b0:	fe 01       	movw	r30, r28
    20b2:	e7 5a       	subi	r30, 0xA7	; 167
    20b4:	ff 4f       	sbci	r31, 0xFF	; 255
    20b6:	80 81       	ld	r24, Z
    20b8:	91 81       	ldd	r25, Z+1	; 0x01
    20ba:	11 96       	adiw	r26, 0x01	; 1
    20bc:	9c 93       	st	X, r25
    20be:	8e 93       	st	-X, r24
    20c0:	fe 01       	movw	r30, r28
    20c2:	eb 5a       	subi	r30, 0xAB	; 171
    20c4:	ff 4f       	sbci	r31, 0xFF	; 255
    20c6:	80 81       	ld	r24, Z
    20c8:	91 81       	ldd	r25, Z+1	; 0x01
    20ca:	01 97       	sbiw	r24, 0x01	; 1
    20cc:	f1 f7       	brne	.-4      	; 0x20ca <main+0x4c8>
    20ce:	fe 01       	movw	r30, r28
    20d0:	eb 5a       	subi	r30, 0xAB	; 171
    20d2:	ff 4f       	sbci	r31, 0xFF	; 255
    20d4:	91 83       	std	Z+1, r25	; 0x01
    20d6:	80 83       	st	Z, r24
		LCD_goToRowCol(1,0);
		LCD_displayString("'-' : Change Password         ");

		key = keypad_getPressedKey();
		/*Wait until the user chooses one of the available options*/
		while(key != '+' && key != '-')
    20d8:	80 91 29 02 	lds	r24, 0x0229
    20dc:	8b 32       	cpi	r24, 0x2B	; 43
    20de:	29 f0       	breq	.+10     	; 0x20ea <main+0x4e8>
    20e0:	80 91 29 02 	lds	r24, 0x0229
    20e4:	8d 32       	cpi	r24, 0x2D	; 45
    20e6:	09 f0       	breq	.+2      	; 0x20ea <main+0x4e8>
    20e8:	3f cf       	rjmp	.-386    	; 0x1f68 <main+0x366>
		}


		//UART_sendByte(key); //----------------> WTF? I think this actually causes a bug!

		if(key == '+')
    20ea:	80 91 29 02 	lds	r24, 0x0229
    20ee:	8b 32       	cpi	r24, 0x2B	; 43
    20f0:	09 f0       	breq	.+2      	; 0x20f4 <main+0x4f2>
    20f2:	ff c1       	rjmp	.+1022   	; 0x24f2 <main+0x8f0>
		{
			/*Clear the flags*/
			intruder_alert = 0;
    20f4:	10 92 28 02 	sts	0x0228, r1
			wrongPassCounter = 0;
    20f8:	10 92 2a 02 	sts	0x022A, r1
    20fc:	e0 c0       	rjmp	.+448    	; 0x22be <main+0x6bc>

			/*Confirm the password. in case of password mismatch, allow only WRONG_PASS_MAX attempts then set an alarm*/
			while (confirmPass() == CONFIRMATION_FAILED)
			{
				wrongPassCounter++;
    20fe:	80 91 2a 02 	lds	r24, 0x022A
    2102:	8f 5f       	subi	r24, 0xFF	; 255
    2104:	80 93 2a 02 	sts	0x022A, r24

				/*Display the number of wrong attempts & max number*/
				LCD_goToRowCol(0,0);
    2108:	80 e0       	ldi	r24, 0x00	; 0
    210a:	60 e0       	ldi	r22, 0x00	; 0
    210c:	0e 94 90 0b 	call	0x1720	; 0x1720 <LCD_goToRowCol>
				LCD_displayString("WRONG PASSWORD_attempt ");
    2110:	88 ed       	ldi	r24, 0xD8	; 216
    2112:	90 e0       	ldi	r25, 0x00	; 0
    2114:	0e 94 46 0a 	call	0x148c	; 0x148c <LCD_displayString>
				LCD_displayInt(wrongPassCounter);
    2118:	80 91 2a 02 	lds	r24, 0x022A
    211c:	88 2f       	mov	r24, r24
    211e:	90 e0       	ldi	r25, 0x00	; 0
    2120:	a0 e0       	ldi	r26, 0x00	; 0
    2122:	b0 e0       	ldi	r27, 0x00	; 0
    2124:	bc 01       	movw	r22, r24
    2126:	cd 01       	movw	r24, r26
    2128:	0e 94 62 0a 	call	0x14c4	; 0x14c4 <LCD_displayInt>
				LCD_displayString(" /3");
    212c:	80 ef       	ldi	r24, 0xF0	; 240
    212e:	90 e0       	ldi	r25, 0x00	; 0
    2130:	0e 94 46 0a 	call	0x148c	; 0x148c <LCD_displayString>
    2134:	fe 01       	movw	r30, r28
    2136:	ef 5a       	subi	r30, 0xAF	; 175
    2138:	ff 4f       	sbci	r31, 0xFF	; 255
    213a:	80 e0       	ldi	r24, 0x00	; 0
    213c:	90 e0       	ldi	r25, 0x00	; 0
    213e:	aa e7       	ldi	r26, 0x7A	; 122
    2140:	b4 e4       	ldi	r27, 0x44	; 68
    2142:	80 83       	st	Z, r24
    2144:	91 83       	std	Z+1, r25	; 0x01
    2146:	a2 83       	std	Z+2, r26	; 0x02
    2148:	b3 83       	std	Z+3, r27	; 0x03
 */
void
_delay_ms(double __ms)
{
	uint16_t __ticks;
	double __tmp = ((F_CPU) / 4e3) * __ms;
    214a:	8e 01       	movw	r16, r28
    214c:	03 5b       	subi	r16, 0xB3	; 179
    214e:	1f 4f       	sbci	r17, 0xFF	; 255
    2150:	fe 01       	movw	r30, r28
    2152:	ef 5a       	subi	r30, 0xAF	; 175
    2154:	ff 4f       	sbci	r31, 0xFF	; 255
    2156:	60 81       	ld	r22, Z
    2158:	71 81       	ldd	r23, Z+1	; 0x01
    215a:	82 81       	ldd	r24, Z+2	; 0x02
    215c:	93 81       	ldd	r25, Z+3	; 0x03
    215e:	20 e0       	ldi	r18, 0x00	; 0
    2160:	30 e0       	ldi	r19, 0x00	; 0
    2162:	4a ef       	ldi	r20, 0xFA	; 250
    2164:	54 e4       	ldi	r21, 0x44	; 68
    2166:	0e 94 1f 02 	call	0x43e	; 0x43e <__mulsf3>
    216a:	dc 01       	movw	r26, r24
    216c:	cb 01       	movw	r24, r22
    216e:	f8 01       	movw	r30, r16
    2170:	80 83       	st	Z, r24
    2172:	91 83       	std	Z+1, r25	; 0x01
    2174:	a2 83       	std	Z+2, r26	; 0x02
    2176:	b3 83       	std	Z+3, r27	; 0x03
	if (__tmp < 1.0)
    2178:	fe 01       	movw	r30, r28
    217a:	e3 5b       	subi	r30, 0xB3	; 179
    217c:	ff 4f       	sbci	r31, 0xFF	; 255
    217e:	60 81       	ld	r22, Z
    2180:	71 81       	ldd	r23, Z+1	; 0x01
    2182:	82 81       	ldd	r24, Z+2	; 0x02
    2184:	93 81       	ldd	r25, Z+3	; 0x03
    2186:	20 e0       	ldi	r18, 0x00	; 0
    2188:	30 e0       	ldi	r19, 0x00	; 0
    218a:	40 e8       	ldi	r20, 0x80	; 128
    218c:	5f e3       	ldi	r21, 0x3F	; 63
    218e:	0e 94 79 03 	call	0x6f2	; 0x6f2 <__ltsf2>
    2192:	88 23       	and	r24, r24
    2194:	44 f4       	brge	.+16     	; 0x21a6 <main+0x5a4>
		__ticks = 1;
    2196:	fe 01       	movw	r30, r28
    2198:	e5 5b       	subi	r30, 0xB5	; 181
    219a:	ff 4f       	sbci	r31, 0xFF	; 255
    219c:	81 e0       	ldi	r24, 0x01	; 1
    219e:	90 e0       	ldi	r25, 0x00	; 0
    21a0:	91 83       	std	Z+1, r25	; 0x01
    21a2:	80 83       	st	Z, r24
    21a4:	64 c0       	rjmp	.+200    	; 0x226e <main+0x66c>
	else if (__tmp > 65535)
    21a6:	fe 01       	movw	r30, r28
    21a8:	e3 5b       	subi	r30, 0xB3	; 179
    21aa:	ff 4f       	sbci	r31, 0xFF	; 255
    21ac:	60 81       	ld	r22, Z
    21ae:	71 81       	ldd	r23, Z+1	; 0x01
    21b0:	82 81       	ldd	r24, Z+2	; 0x02
    21b2:	93 81       	ldd	r25, Z+3	; 0x03
    21b4:	20 e0       	ldi	r18, 0x00	; 0
    21b6:	3f ef       	ldi	r19, 0xFF	; 255
    21b8:	4f e7       	ldi	r20, 0x7F	; 127
    21ba:	57 e4       	ldi	r21, 0x47	; 71
    21bc:	0e 94 19 03 	call	0x632	; 0x632 <__gtsf2>
    21c0:	18 16       	cp	r1, r24
    21c2:	0c f0       	brlt	.+2      	; 0x21c6 <main+0x5c4>
    21c4:	43 c0       	rjmp	.+134    	; 0x224c <main+0x64a>
	{
		//	__ticks = requested delay in 1/10 ms
		__ticks = (uint16_t) (__ms * 10.0);
    21c6:	fe 01       	movw	r30, r28
    21c8:	ef 5a       	subi	r30, 0xAF	; 175
    21ca:	ff 4f       	sbci	r31, 0xFF	; 255
    21cc:	60 81       	ld	r22, Z
    21ce:	71 81       	ldd	r23, Z+1	; 0x01
    21d0:	82 81       	ldd	r24, Z+2	; 0x02
    21d2:	93 81       	ldd	r25, Z+3	; 0x03
    21d4:	20 e0       	ldi	r18, 0x00	; 0
    21d6:	30 e0       	ldi	r19, 0x00	; 0
    21d8:	40 e2       	ldi	r20, 0x20	; 32
    21da:	51 e4       	ldi	r21, 0x41	; 65
    21dc:	0e 94 1f 02 	call	0x43e	; 0x43e <__mulsf3>
    21e0:	dc 01       	movw	r26, r24
    21e2:	cb 01       	movw	r24, r22
    21e4:	8e 01       	movw	r16, r28
    21e6:	05 5b       	subi	r16, 0xB5	; 181
    21e8:	1f 4f       	sbci	r17, 0xFF	; 255
    21ea:	bc 01       	movw	r22, r24
    21ec:	cd 01       	movw	r24, r26
    21ee:	0e 94 49 00 	call	0x92	; 0x92 <__fixunssfsi>
    21f2:	dc 01       	movw	r26, r24
    21f4:	cb 01       	movw	r24, r22
    21f6:	f8 01       	movw	r30, r16
    21f8:	91 83       	std	Z+1, r25	; 0x01
    21fa:	80 83       	st	Z, r24
    21fc:	1f c0       	rjmp	.+62     	; 0x223c <main+0x63a>
    21fe:	fe 01       	movw	r30, r28
    2200:	e7 5b       	subi	r30, 0xB7	; 183
    2202:	ff 4f       	sbci	r31, 0xFF	; 255
    2204:	88 ec       	ldi	r24, 0xC8	; 200
    2206:	90 e0       	ldi	r25, 0x00	; 0
    2208:	91 83       	std	Z+1, r25	; 0x01
    220a:	80 83       	st	Z, r24
    220c:	fe 01       	movw	r30, r28
    220e:	e7 5b       	subi	r30, 0xB7	; 183
    2210:	ff 4f       	sbci	r31, 0xFF	; 255
    2212:	80 81       	ld	r24, Z
    2214:	91 81       	ldd	r25, Z+1	; 0x01
    2216:	01 97       	sbiw	r24, 0x01	; 1
    2218:	f1 f7       	brne	.-4      	; 0x2216 <main+0x614>
    221a:	fe 01       	movw	r30, r28
    221c:	e7 5b       	subi	r30, 0xB7	; 183
    221e:	ff 4f       	sbci	r31, 0xFF	; 255
    2220:	91 83       	std	Z+1, r25	; 0x01
    2222:	80 83       	st	Z, r24
		while(__ticks)
		{
			// wait 1/10 ms
			_delay_loop_2(((F_CPU) / 4e3) / 10);
			__ticks --;
    2224:	de 01       	movw	r26, r28
    2226:	a5 5b       	subi	r26, 0xB5	; 181
    2228:	bf 4f       	sbci	r27, 0xFF	; 255
    222a:	fe 01       	movw	r30, r28
    222c:	e5 5b       	subi	r30, 0xB5	; 181
    222e:	ff 4f       	sbci	r31, 0xFF	; 255
    2230:	80 81       	ld	r24, Z
    2232:	91 81       	ldd	r25, Z+1	; 0x01
    2234:	01 97       	sbiw	r24, 0x01	; 1
    2236:	11 96       	adiw	r26, 0x01	; 1
    2238:	9c 93       	st	X, r25
    223a:	8e 93       	st	-X, r24
		__ticks = 1;
	else if (__tmp > 65535)
	{
		//	__ticks = requested delay in 1/10 ms
		__ticks = (uint16_t) (__ms * 10.0);
		while(__ticks)
    223c:	fe 01       	movw	r30, r28
    223e:	e5 5b       	subi	r30, 0xB5	; 181
    2240:	ff 4f       	sbci	r31, 0xFF	; 255
    2242:	80 81       	ld	r24, Z
    2244:	91 81       	ldd	r25, Z+1	; 0x01
    2246:	00 97       	sbiw	r24, 0x00	; 0
    2248:	d1 f6       	brne	.-76     	; 0x21fe <main+0x5fc>
    224a:	28 c0       	rjmp	.+80     	; 0x229c <main+0x69a>
			__ticks --;
		}
		return;
	}
	else
		__ticks = (uint16_t)__tmp;
    224c:	8e 01       	movw	r16, r28
    224e:	05 5b       	subi	r16, 0xB5	; 181
    2250:	1f 4f       	sbci	r17, 0xFF	; 255
    2252:	fe 01       	movw	r30, r28
    2254:	e3 5b       	subi	r30, 0xB3	; 179
    2256:	ff 4f       	sbci	r31, 0xFF	; 255
    2258:	60 81       	ld	r22, Z
    225a:	71 81       	ldd	r23, Z+1	; 0x01
    225c:	82 81       	ldd	r24, Z+2	; 0x02
    225e:	93 81       	ldd	r25, Z+3	; 0x03
    2260:	0e 94 49 00 	call	0x92	; 0x92 <__fixunssfsi>
    2264:	dc 01       	movw	r26, r24
    2266:	cb 01       	movw	r24, r22
    2268:	f8 01       	movw	r30, r16
    226a:	91 83       	std	Z+1, r25	; 0x01
    226c:	80 83       	st	Z, r24
    226e:	de 01       	movw	r26, r28
    2270:	a9 5b       	subi	r26, 0xB9	; 185
    2272:	bf 4f       	sbci	r27, 0xFF	; 255
    2274:	fe 01       	movw	r30, r28
    2276:	e5 5b       	subi	r30, 0xB5	; 181
    2278:	ff 4f       	sbci	r31, 0xFF	; 255
    227a:	80 81       	ld	r24, Z
    227c:	91 81       	ldd	r25, Z+1	; 0x01
    227e:	11 96       	adiw	r26, 0x01	; 1
    2280:	9c 93       	st	X, r25
    2282:	8e 93       	st	-X, r24
    2284:	fe 01       	movw	r30, r28
    2286:	e9 5b       	subi	r30, 0xB9	; 185
    2288:	ff 4f       	sbci	r31, 0xFF	; 255
    228a:	80 81       	ld	r24, Z
    228c:	91 81       	ldd	r25, Z+1	; 0x01
    228e:	01 97       	sbiw	r24, 0x01	; 1
    2290:	f1 f7       	brne	.-4      	; 0x228e <main+0x68c>
    2292:	fe 01       	movw	r30, r28
    2294:	e9 5b       	subi	r30, 0xB9	; 185
    2296:	ff 4f       	sbci	r31, 0xFF	; 255
    2298:	91 83       	std	Z+1, r25	; 0x01
    229a:	80 83       	st	Z, r24

				/*Delay so that the message is visible*/
				_delay_ms(1000);

				/*Start the alarm if the user reached the max number of wrong attempts*/
				if(wrongPassCounter == WRONG_PASS_MAX)
    229c:	80 91 2a 02 	lds	r24, 0x022A
    22a0:	83 30       	cpi	r24, 0x03	; 3
    22a2:	69 f4       	brne	.+26     	; 0x22be <main+0x6bc>
				{
					/*start the alarm*/
					alarmStart(TOP, N_TICKS_REQUIRED);
    22a4:	8a e1       	ldi	r24, 0x1A	; 26
    22a6:	97 eb       	ldi	r25, 0xB7	; 183
    22a8:	6a e0       	ldi	r22, 0x0A	; 10
    22aa:	0e 94 fd 13 	call	0x27fa	; 0x27fa <alarmStart>

					/*set a flag, so no action is taken after the alarm stops*/
					intruder_alert = 1;
    22ae:	81 e0       	ldi	r24, 0x01	; 1
    22b0:	80 93 28 02 	sts	0x0228, r24

					/*Disable all interfaces until the alarm stops*/
					while(alarmOn_flag);
    22b4:	80 91 2b 02 	lds	r24, 0x022B
    22b8:	88 23       	and	r24, r24
    22ba:	e1 f7       	brne	.-8      	; 0x22b4 <main+0x6b2>
    22bc:	05 c0       	rjmp	.+10     	; 0x22c8 <main+0x6c6>
			/*Clear the flags*/
			intruder_alert = 0;
			wrongPassCounter = 0;

			/*Confirm the password. in case of password mismatch, allow only WRONG_PASS_MAX attempts then set an alarm*/
			while (confirmPass() == CONFIRMATION_FAILED)
    22be:	0e 94 6e 15 	call	0x2adc	; 0x2adc <confirmPass>
    22c2:	88 23       	and	r24, r24
    22c4:	09 f4       	brne	.+2      	; 0x22c8 <main+0x6c6>
    22c6:	1b cf       	rjmp	.-458    	; 0x20fe <main+0x4fc>
					break;
				}
			}

			/*Open the door if the user entered the right password within the number of permissible attempts (the flag is not set) */
			if(intruder_alert == 0)
    22c8:	80 91 28 02 	lds	r24, 0x0228
    22cc:	88 23       	and	r24, r24
    22ce:	09 f0       	breq	.+2      	; 0x22d2 <main+0x6d0>
    22d0:	36 ce       	rjmp	.-916    	; 0x1f3e <main+0x33c>
			{
				/*Send a command to the Control ECU to open the door*/
				UART_sendByte(OPEN_DOOR);
    22d2:	8b ed       	ldi	r24, 0xDB	; 219
    22d4:	0e 94 69 0d 	call	0x1ad2	; 0x1ad2 <UART_sendByte>

				LCD_clear();
    22d8:	0e 94 86 0b 	call	0x170c	; 0x170c <LCD_clear>
				LCD_goToRowCol(0,0);
    22dc:	80 e0       	ldi	r24, 0x00	; 0
    22de:	60 e0       	ldi	r22, 0x00	; 0
    22e0:	0e 94 90 0b 	call	0x1720	; 0x1720 <LCD_goToRowCol>
				LCD_displayString("Openning ...");
    22e4:	84 ef       	ldi	r24, 0xF4	; 244
    22e6:	90 e0       	ldi	r25, 0x00	; 0
    22e8:	0e 94 46 0a 	call	0x148c	; 0x148c <LCD_displayString>
    22ec:	fe 01       	movw	r30, r28
    22ee:	ed 5b       	subi	r30, 0xBD	; 189
    22f0:	ff 4f       	sbci	r31, 0xFF	; 255
    22f2:	80 e0       	ldi	r24, 0x00	; 0
    22f4:	90 e6       	ldi	r25, 0x60	; 96
    22f6:	aa e6       	ldi	r26, 0x6A	; 106
    22f8:	b6 e4       	ldi	r27, 0x46	; 70
    22fa:	80 83       	st	Z, r24
    22fc:	91 83       	std	Z+1, r25	; 0x01
    22fe:	a2 83       	std	Z+2, r26	; 0x02
    2300:	b3 83       	std	Z+3, r27	; 0x03
 */
void
_delay_ms(double __ms)
{
	uint16_t __ticks;
	double __tmp = ((F_CPU) / 4e3) * __ms;
    2302:	8e 01       	movw	r16, r28
    2304:	01 5c       	subi	r16, 0xC1	; 193
    2306:	1f 4f       	sbci	r17, 0xFF	; 255
    2308:	fe 01       	movw	r30, r28
    230a:	ed 5b       	subi	r30, 0xBD	; 189
    230c:	ff 4f       	sbci	r31, 0xFF	; 255
    230e:	60 81       	ld	r22, Z
    2310:	71 81       	ldd	r23, Z+1	; 0x01
    2312:	82 81       	ldd	r24, Z+2	; 0x02
    2314:	93 81       	ldd	r25, Z+3	; 0x03
    2316:	20 e0       	ldi	r18, 0x00	; 0
    2318:	30 e0       	ldi	r19, 0x00	; 0
    231a:	4a ef       	ldi	r20, 0xFA	; 250
    231c:	54 e4       	ldi	r21, 0x44	; 68
    231e:	0e 94 1f 02 	call	0x43e	; 0x43e <__mulsf3>
    2322:	dc 01       	movw	r26, r24
    2324:	cb 01       	movw	r24, r22
    2326:	f8 01       	movw	r30, r16
    2328:	80 83       	st	Z, r24
    232a:	91 83       	std	Z+1, r25	; 0x01
    232c:	a2 83       	std	Z+2, r26	; 0x02
    232e:	b3 83       	std	Z+3, r27	; 0x03
	if (__tmp < 1.0)
    2330:	fe 01       	movw	r30, r28
    2332:	ff 96       	adiw	r30, 0x3f	; 63
    2334:	60 81       	ld	r22, Z
    2336:	71 81       	ldd	r23, Z+1	; 0x01
    2338:	82 81       	ldd	r24, Z+2	; 0x02
    233a:	93 81       	ldd	r25, Z+3	; 0x03
    233c:	20 e0       	ldi	r18, 0x00	; 0
    233e:	30 e0       	ldi	r19, 0x00	; 0
    2340:	40 e8       	ldi	r20, 0x80	; 128
    2342:	5f e3       	ldi	r21, 0x3F	; 63
    2344:	0e 94 79 03 	call	0x6f2	; 0x6f2 <__ltsf2>
    2348:	88 23       	and	r24, r24
    234a:	2c f4       	brge	.+10     	; 0x2356 <main+0x754>
		__ticks = 1;
    234c:	81 e0       	ldi	r24, 0x01	; 1
    234e:	90 e0       	ldi	r25, 0x00	; 0
    2350:	9e af       	std	Y+62, r25	; 0x3e
    2352:	8d af       	std	Y+61, r24	; 0x3d
    2354:	46 c0       	rjmp	.+140    	; 0x23e2 <main+0x7e0>
	else if (__tmp > 65535)
    2356:	fe 01       	movw	r30, r28
    2358:	ff 96       	adiw	r30, 0x3f	; 63
    235a:	60 81       	ld	r22, Z
    235c:	71 81       	ldd	r23, Z+1	; 0x01
    235e:	82 81       	ldd	r24, Z+2	; 0x02
    2360:	93 81       	ldd	r25, Z+3	; 0x03
    2362:	20 e0       	ldi	r18, 0x00	; 0
    2364:	3f ef       	ldi	r19, 0xFF	; 255
    2366:	4f e7       	ldi	r20, 0x7F	; 127
    2368:	57 e4       	ldi	r21, 0x47	; 71
    236a:	0e 94 19 03 	call	0x632	; 0x632 <__gtsf2>
    236e:	18 16       	cp	r1, r24
    2370:	64 f5       	brge	.+88     	; 0x23ca <main+0x7c8>
	{
		//	__ticks = requested delay in 1/10 ms
		__ticks = (uint16_t) (__ms * 10.0);
    2372:	fe 01       	movw	r30, r28
    2374:	ed 5b       	subi	r30, 0xBD	; 189
    2376:	ff 4f       	sbci	r31, 0xFF	; 255
    2378:	60 81       	ld	r22, Z
    237a:	71 81       	ldd	r23, Z+1	; 0x01
    237c:	82 81       	ldd	r24, Z+2	; 0x02
    237e:	93 81       	ldd	r25, Z+3	; 0x03
    2380:	20 e0       	ldi	r18, 0x00	; 0
    2382:	30 e0       	ldi	r19, 0x00	; 0
    2384:	40 e2       	ldi	r20, 0x20	; 32
    2386:	51 e4       	ldi	r21, 0x41	; 65
    2388:	0e 94 1f 02 	call	0x43e	; 0x43e <__mulsf3>
    238c:	dc 01       	movw	r26, r24
    238e:	cb 01       	movw	r24, r22
    2390:	bc 01       	movw	r22, r24
    2392:	cd 01       	movw	r24, r26
    2394:	0e 94 49 00 	call	0x92	; 0x92 <__fixunssfsi>
    2398:	dc 01       	movw	r26, r24
    239a:	cb 01       	movw	r24, r22
    239c:	9e af       	std	Y+62, r25	; 0x3e
    239e:	8d af       	std	Y+61, r24	; 0x3d
    23a0:	0f c0       	rjmp	.+30     	; 0x23c0 <main+0x7be>
    23a2:	88 ec       	ldi	r24, 0xC8	; 200
    23a4:	90 e0       	ldi	r25, 0x00	; 0
    23a6:	9c af       	std	Y+60, r25	; 0x3c
    23a8:	8b af       	std	Y+59, r24	; 0x3b
    23aa:	8b ad       	ldd	r24, Y+59	; 0x3b
    23ac:	9c ad       	ldd	r25, Y+60	; 0x3c
    23ae:	01 97       	sbiw	r24, 0x01	; 1
    23b0:	f1 f7       	brne	.-4      	; 0x23ae <main+0x7ac>
    23b2:	9c af       	std	Y+60, r25	; 0x3c
    23b4:	8b af       	std	Y+59, r24	; 0x3b
		while(__ticks)
		{
			// wait 1/10 ms
			_delay_loop_2(((F_CPU) / 4e3) / 10);
			__ticks --;
    23b6:	8d ad       	ldd	r24, Y+61	; 0x3d
    23b8:	9e ad       	ldd	r25, Y+62	; 0x3e
    23ba:	01 97       	sbiw	r24, 0x01	; 1
    23bc:	9e af       	std	Y+62, r25	; 0x3e
    23be:	8d af       	std	Y+61, r24	; 0x3d
		__ticks = 1;
	else if (__tmp > 65535)
	{
		//	__ticks = requested delay in 1/10 ms
		__ticks = (uint16_t) (__ms * 10.0);
		while(__ticks)
    23c0:	8d ad       	ldd	r24, Y+61	; 0x3d
    23c2:	9e ad       	ldd	r25, Y+62	; 0x3e
    23c4:	00 97       	sbiw	r24, 0x00	; 0
    23c6:	69 f7       	brne	.-38     	; 0x23a2 <main+0x7a0>
    23c8:	16 c0       	rjmp	.+44     	; 0x23f6 <main+0x7f4>
			__ticks --;
		}
		return;
	}
	else
		__ticks = (uint16_t)__tmp;
    23ca:	fe 01       	movw	r30, r28
    23cc:	ff 96       	adiw	r30, 0x3f	; 63
    23ce:	60 81       	ld	r22, Z
    23d0:	71 81       	ldd	r23, Z+1	; 0x01
    23d2:	82 81       	ldd	r24, Z+2	; 0x02
    23d4:	93 81       	ldd	r25, Z+3	; 0x03
    23d6:	0e 94 49 00 	call	0x92	; 0x92 <__fixunssfsi>
    23da:	dc 01       	movw	r26, r24
    23dc:	cb 01       	movw	r24, r22
    23de:	9e af       	std	Y+62, r25	; 0x3e
    23e0:	8d af       	std	Y+61, r24	; 0x3d
    23e2:	8d ad       	ldd	r24, Y+61	; 0x3d
    23e4:	9e ad       	ldd	r25, Y+62	; 0x3e
    23e6:	9a af       	std	Y+58, r25	; 0x3a
    23e8:	89 af       	std	Y+57, r24	; 0x39
    23ea:	89 ad       	ldd	r24, Y+57	; 0x39
    23ec:	9a ad       	ldd	r25, Y+58	; 0x3a
    23ee:	01 97       	sbiw	r24, 0x01	; 1
    23f0:	f1 f7       	brne	.-4      	; 0x23ee <main+0x7ec>
    23f2:	9a af       	std	Y+58, r25	; 0x3a
    23f4:	89 af       	std	Y+57, r24	; 0x39
				_delay_ms(15000);

				/*Send a command to the Control ECU to close the door*/
				UART_sendByte(CLOSE_DOOR);
    23f6:	8d eb       	ldi	r24, 0xBD	; 189
    23f8:	0e 94 69 0d 	call	0x1ad2	; 0x1ad2 <UART_sendByte>
				LCD_goToRowCol(0,0);
    23fc:	80 e0       	ldi	r24, 0x00	; 0
    23fe:	60 e0       	ldi	r22, 0x00	; 0
    2400:	0e 94 90 0b 	call	0x1720	; 0x1720 <LCD_goToRowCol>
				LCD_displayString("Closing ... ");
    2404:	81 e0       	ldi	r24, 0x01	; 1
    2406:	91 e0       	ldi	r25, 0x01	; 1
    2408:	0e 94 46 0a 	call	0x148c	; 0x148c <LCD_displayString>
    240c:	80 e0       	ldi	r24, 0x00	; 0
    240e:	90 e6       	ldi	r25, 0x60	; 96
    2410:	aa e6       	ldi	r26, 0x6A	; 106
    2412:	b6 e4       	ldi	r27, 0x46	; 70
    2414:	8d ab       	std	Y+53, r24	; 0x35
    2416:	9e ab       	std	Y+54, r25	; 0x36
    2418:	af ab       	std	Y+55, r26	; 0x37
    241a:	b8 af       	std	Y+56, r27	; 0x38
 */
void
_delay_ms(double __ms)
{
	uint16_t __ticks;
	double __tmp = ((F_CPU) / 4e3) * __ms;
    241c:	6d a9       	ldd	r22, Y+53	; 0x35
    241e:	7e a9       	ldd	r23, Y+54	; 0x36
    2420:	8f a9       	ldd	r24, Y+55	; 0x37
    2422:	98 ad       	ldd	r25, Y+56	; 0x38
    2424:	20 e0       	ldi	r18, 0x00	; 0
    2426:	30 e0       	ldi	r19, 0x00	; 0
    2428:	4a ef       	ldi	r20, 0xFA	; 250
    242a:	54 e4       	ldi	r21, 0x44	; 68
    242c:	0e 94 1f 02 	call	0x43e	; 0x43e <__mulsf3>
    2430:	dc 01       	movw	r26, r24
    2432:	cb 01       	movw	r24, r22
    2434:	89 ab       	std	Y+49, r24	; 0x31
    2436:	9a ab       	std	Y+50, r25	; 0x32
    2438:	ab ab       	std	Y+51, r26	; 0x33
    243a:	bc ab       	std	Y+52, r27	; 0x34
	if (__tmp < 1.0)
    243c:	69 a9       	ldd	r22, Y+49	; 0x31
    243e:	7a a9       	ldd	r23, Y+50	; 0x32
    2440:	8b a9       	ldd	r24, Y+51	; 0x33
    2442:	9c a9       	ldd	r25, Y+52	; 0x34
    2444:	20 e0       	ldi	r18, 0x00	; 0
    2446:	30 e0       	ldi	r19, 0x00	; 0
    2448:	40 e8       	ldi	r20, 0x80	; 128
    244a:	5f e3       	ldi	r21, 0x3F	; 63
    244c:	0e 94 79 03 	call	0x6f2	; 0x6f2 <__ltsf2>
    2450:	88 23       	and	r24, r24
    2452:	2c f4       	brge	.+10     	; 0x245e <main+0x85c>
		__ticks = 1;
    2454:	81 e0       	ldi	r24, 0x01	; 1
    2456:	90 e0       	ldi	r25, 0x00	; 0
    2458:	98 ab       	std	Y+48, r25	; 0x30
    245a:	8f a7       	std	Y+47, r24	; 0x2f
    245c:	3f c0       	rjmp	.+126    	; 0x24dc <main+0x8da>
	else if (__tmp > 65535)
    245e:	69 a9       	ldd	r22, Y+49	; 0x31
    2460:	7a a9       	ldd	r23, Y+50	; 0x32
    2462:	8b a9       	ldd	r24, Y+51	; 0x33
    2464:	9c a9       	ldd	r25, Y+52	; 0x34
    2466:	20 e0       	ldi	r18, 0x00	; 0
    2468:	3f ef       	ldi	r19, 0xFF	; 255
    246a:	4f e7       	ldi	r20, 0x7F	; 127
    246c:	57 e4       	ldi	r21, 0x47	; 71
    246e:	0e 94 19 03 	call	0x632	; 0x632 <__gtsf2>
    2472:	18 16       	cp	r1, r24
    2474:	4c f5       	brge	.+82     	; 0x24c8 <main+0x8c6>
	{
		//	__ticks = requested delay in 1/10 ms
		__ticks = (uint16_t) (__ms * 10.0);
    2476:	6d a9       	ldd	r22, Y+53	; 0x35
    2478:	7e a9       	ldd	r23, Y+54	; 0x36
    247a:	8f a9       	ldd	r24, Y+55	; 0x37
    247c:	98 ad       	ldd	r25, Y+56	; 0x38
    247e:	20 e0       	ldi	r18, 0x00	; 0
    2480:	30 e0       	ldi	r19, 0x00	; 0
    2482:	40 e2       	ldi	r20, 0x20	; 32
    2484:	51 e4       	ldi	r21, 0x41	; 65
    2486:	0e 94 1f 02 	call	0x43e	; 0x43e <__mulsf3>
    248a:	dc 01       	movw	r26, r24
    248c:	cb 01       	movw	r24, r22
    248e:	bc 01       	movw	r22, r24
    2490:	cd 01       	movw	r24, r26
    2492:	0e 94 49 00 	call	0x92	; 0x92 <__fixunssfsi>
    2496:	dc 01       	movw	r26, r24
    2498:	cb 01       	movw	r24, r22
    249a:	98 ab       	std	Y+48, r25	; 0x30
    249c:	8f a7       	std	Y+47, r24	; 0x2f
    249e:	0f c0       	rjmp	.+30     	; 0x24be <main+0x8bc>
    24a0:	88 ec       	ldi	r24, 0xC8	; 200
    24a2:	90 e0       	ldi	r25, 0x00	; 0
    24a4:	9e a7       	std	Y+46, r25	; 0x2e
    24a6:	8d a7       	std	Y+45, r24	; 0x2d
    24a8:	8d a5       	ldd	r24, Y+45	; 0x2d
    24aa:	9e a5       	ldd	r25, Y+46	; 0x2e
    24ac:	01 97       	sbiw	r24, 0x01	; 1
    24ae:	f1 f7       	brne	.-4      	; 0x24ac <main+0x8aa>
    24b0:	9e a7       	std	Y+46, r25	; 0x2e
    24b2:	8d a7       	std	Y+45, r24	; 0x2d
		while(__ticks)
		{
			// wait 1/10 ms
			_delay_loop_2(((F_CPU) / 4e3) / 10);
			__ticks --;
    24b4:	8f a5       	ldd	r24, Y+47	; 0x2f
    24b6:	98 a9       	ldd	r25, Y+48	; 0x30
    24b8:	01 97       	sbiw	r24, 0x01	; 1
    24ba:	98 ab       	std	Y+48, r25	; 0x30
    24bc:	8f a7       	std	Y+47, r24	; 0x2f
		__ticks = 1;
	else if (__tmp > 65535)
	{
		//	__ticks = requested delay in 1/10 ms
		__ticks = (uint16_t) (__ms * 10.0);
		while(__ticks)
    24be:	8f a5       	ldd	r24, Y+47	; 0x2f
    24c0:	98 a9       	ldd	r25, Y+48	; 0x30
    24c2:	00 97       	sbiw	r24, 0x00	; 0
    24c4:	69 f7       	brne	.-38     	; 0x24a0 <main+0x89e>
    24c6:	3b cd       	rjmp	.-1418   	; 0x1f3e <main+0x33c>
			__ticks --;
		}
		return;
	}
	else
		__ticks = (uint16_t)__tmp;
    24c8:	69 a9       	ldd	r22, Y+49	; 0x31
    24ca:	7a a9       	ldd	r23, Y+50	; 0x32
    24cc:	8b a9       	ldd	r24, Y+51	; 0x33
    24ce:	9c a9       	ldd	r25, Y+52	; 0x34
    24d0:	0e 94 49 00 	call	0x92	; 0x92 <__fixunssfsi>
    24d4:	dc 01       	movw	r26, r24
    24d6:	cb 01       	movw	r24, r22
    24d8:	98 ab       	std	Y+48, r25	; 0x30
    24da:	8f a7       	std	Y+47, r24	; 0x2f
    24dc:	8f a5       	ldd	r24, Y+47	; 0x2f
    24de:	98 a9       	ldd	r25, Y+48	; 0x30
    24e0:	9c a7       	std	Y+44, r25	; 0x2c
    24e2:	8b a7       	std	Y+43, r24	; 0x2b
    24e4:	8b a5       	ldd	r24, Y+43	; 0x2b
    24e6:	9c a5       	ldd	r25, Y+44	; 0x2c
    24e8:	01 97       	sbiw	r24, 0x01	; 1
    24ea:	f1 f7       	brne	.-4      	; 0x24e8 <main+0x8e6>
    24ec:	9c a7       	std	Y+44, r25	; 0x2c
    24ee:	8b a7       	std	Y+43, r24	; 0x2b
    24f0:	26 cd       	rjmp	.-1460   	; 0x1f3e <main+0x33c>
				_delay_ms(15000);
			}
		}

		else if(key == '-')
    24f2:	80 91 29 02 	lds	r24, 0x0229
    24f6:	8d 32       	cpi	r24, 0x2D	; 45
    24f8:	09 f0       	breq	.+2      	; 0x24fc <main+0x8fa>
    24fa:	21 cd       	rjmp	.-1470   	; 0x1f3e <main+0x33c>
		{
			/*Confirm the old password before changing it*/
			if (confirmPass() == CONFIRMATION_PASSED)
    24fc:	0e 94 6e 15 	call	0x2adc	; 0x2adc <confirmPass>
    2500:	81 30       	cpi	r24, 0x01	; 1
    2502:	09 f0       	breq	.+2      	; 0x2506 <main+0x904>
    2504:	ff c0       	rjmp	.+510    	; 0x2704 <main+0xb02>
			{
				/*Set the new password*/
				setNewPass();
    2506:	0e 94 33 14 	call	0x2866	; 0x2866 <setNewPass>
    250a:	7c c0       	rjmp	.+248    	; 0x2604 <main+0xa02>

				/*Confirm the password. in case of password mismatch, repeat the process of setting new password and confirming*/
				while (confirmPass() == CONFIRMATION_FAILED)
				{
					/*Notify the user about the confirmation failure*/
					LCD_goToRowCol(0,0);
    250c:	80 e0       	ldi	r24, 0x00	; 0
    250e:	60 e0       	ldi	r22, 0x00	; 0
    2510:	0e 94 90 0b 	call	0x1720	; 0x1720 <LCD_goToRowCol>
					LCD_displayString("Confirmation Failed           ");
    2514:	80 e6       	ldi	r24, 0x60	; 96
    2516:	90 e0       	ldi	r25, 0x00	; 0
    2518:	0e 94 46 0a 	call	0x148c	; 0x148c <LCD_displayString>
    251c:	80 e0       	ldi	r24, 0x00	; 0
    251e:	90 e0       	ldi	r25, 0x00	; 0
    2520:	aa ef       	ldi	r26, 0xFA	; 250
    2522:	b3 e4       	ldi	r27, 0x43	; 67
    2524:	8f a3       	std	Y+39, r24	; 0x27
    2526:	98 a7       	std	Y+40, r25	; 0x28
    2528:	a9 a7       	std	Y+41, r26	; 0x29
    252a:	ba a7       	std	Y+42, r27	; 0x2a
 */
void
_delay_ms(double __ms)
{
	uint16_t __ticks;
	double __tmp = ((F_CPU) / 4e3) * __ms;
    252c:	6f a1       	ldd	r22, Y+39	; 0x27
    252e:	78 a5       	ldd	r23, Y+40	; 0x28
    2530:	89 a5       	ldd	r24, Y+41	; 0x29
    2532:	9a a5       	ldd	r25, Y+42	; 0x2a
    2534:	20 e0       	ldi	r18, 0x00	; 0
    2536:	30 e0       	ldi	r19, 0x00	; 0
    2538:	4a ef       	ldi	r20, 0xFA	; 250
    253a:	54 e4       	ldi	r21, 0x44	; 68
    253c:	0e 94 1f 02 	call	0x43e	; 0x43e <__mulsf3>
    2540:	dc 01       	movw	r26, r24
    2542:	cb 01       	movw	r24, r22
    2544:	8b a3       	std	Y+35, r24	; 0x23
    2546:	9c a3       	std	Y+36, r25	; 0x24
    2548:	ad a3       	std	Y+37, r26	; 0x25
    254a:	be a3       	std	Y+38, r27	; 0x26
	if (__tmp < 1.0)
    254c:	6b a1       	ldd	r22, Y+35	; 0x23
    254e:	7c a1       	ldd	r23, Y+36	; 0x24
    2550:	8d a1       	ldd	r24, Y+37	; 0x25
    2552:	9e a1       	ldd	r25, Y+38	; 0x26
    2554:	20 e0       	ldi	r18, 0x00	; 0
    2556:	30 e0       	ldi	r19, 0x00	; 0
    2558:	40 e8       	ldi	r20, 0x80	; 128
    255a:	5f e3       	ldi	r21, 0x3F	; 63
    255c:	0e 94 79 03 	call	0x6f2	; 0x6f2 <__ltsf2>
    2560:	88 23       	and	r24, r24
    2562:	2c f4       	brge	.+10     	; 0x256e <main+0x96c>
		__ticks = 1;
    2564:	81 e0       	ldi	r24, 0x01	; 1
    2566:	90 e0       	ldi	r25, 0x00	; 0
    2568:	9a a3       	std	Y+34, r25	; 0x22
    256a:	89 a3       	std	Y+33, r24	; 0x21
    256c:	3f c0       	rjmp	.+126    	; 0x25ec <main+0x9ea>
	else if (__tmp > 65535)
    256e:	6b a1       	ldd	r22, Y+35	; 0x23
    2570:	7c a1       	ldd	r23, Y+36	; 0x24
    2572:	8d a1       	ldd	r24, Y+37	; 0x25
    2574:	9e a1       	ldd	r25, Y+38	; 0x26
    2576:	20 e0       	ldi	r18, 0x00	; 0
    2578:	3f ef       	ldi	r19, 0xFF	; 255
    257a:	4f e7       	ldi	r20, 0x7F	; 127
    257c:	57 e4       	ldi	r21, 0x47	; 71
    257e:	0e 94 19 03 	call	0x632	; 0x632 <__gtsf2>
    2582:	18 16       	cp	r1, r24
    2584:	4c f5       	brge	.+82     	; 0x25d8 <main+0x9d6>
	{
		//	__ticks = requested delay in 1/10 ms
		__ticks = (uint16_t) (__ms * 10.0);
    2586:	6f a1       	ldd	r22, Y+39	; 0x27
    2588:	78 a5       	ldd	r23, Y+40	; 0x28
    258a:	89 a5       	ldd	r24, Y+41	; 0x29
    258c:	9a a5       	ldd	r25, Y+42	; 0x2a
    258e:	20 e0       	ldi	r18, 0x00	; 0
    2590:	30 e0       	ldi	r19, 0x00	; 0
    2592:	40 e2       	ldi	r20, 0x20	; 32
    2594:	51 e4       	ldi	r21, 0x41	; 65
    2596:	0e 94 1f 02 	call	0x43e	; 0x43e <__mulsf3>
    259a:	dc 01       	movw	r26, r24
    259c:	cb 01       	movw	r24, r22
    259e:	bc 01       	movw	r22, r24
    25a0:	cd 01       	movw	r24, r26
    25a2:	0e 94 49 00 	call	0x92	; 0x92 <__fixunssfsi>
    25a6:	dc 01       	movw	r26, r24
    25a8:	cb 01       	movw	r24, r22
    25aa:	9a a3       	std	Y+34, r25	; 0x22
    25ac:	89 a3       	std	Y+33, r24	; 0x21
    25ae:	0f c0       	rjmp	.+30     	; 0x25ce <main+0x9cc>
    25b0:	88 ec       	ldi	r24, 0xC8	; 200
    25b2:	90 e0       	ldi	r25, 0x00	; 0
    25b4:	98 a3       	std	Y+32, r25	; 0x20
    25b6:	8f 8f       	std	Y+31, r24	; 0x1f
    25b8:	8f 8d       	ldd	r24, Y+31	; 0x1f
    25ba:	98 a1       	ldd	r25, Y+32	; 0x20
    25bc:	01 97       	sbiw	r24, 0x01	; 1
    25be:	f1 f7       	brne	.-4      	; 0x25bc <main+0x9ba>
    25c0:	98 a3       	std	Y+32, r25	; 0x20
    25c2:	8f 8f       	std	Y+31, r24	; 0x1f
		while(__ticks)
		{
			// wait 1/10 ms
			_delay_loop_2(((F_CPU) / 4e3) / 10);
			__ticks --;
    25c4:	89 a1       	ldd	r24, Y+33	; 0x21
    25c6:	9a a1       	ldd	r25, Y+34	; 0x22
    25c8:	01 97       	sbiw	r24, 0x01	; 1
    25ca:	9a a3       	std	Y+34, r25	; 0x22
    25cc:	89 a3       	std	Y+33, r24	; 0x21
		__ticks = 1;
	else if (__tmp > 65535)
	{
		//	__ticks = requested delay in 1/10 ms
		__ticks = (uint16_t) (__ms * 10.0);
		while(__ticks)
    25ce:	89 a1       	ldd	r24, Y+33	; 0x21
    25d0:	9a a1       	ldd	r25, Y+34	; 0x22
    25d2:	00 97       	sbiw	r24, 0x00	; 0
    25d4:	69 f7       	brne	.-38     	; 0x25b0 <main+0x9ae>
    25d6:	14 c0       	rjmp	.+40     	; 0x2600 <main+0x9fe>
			__ticks --;
		}
		return;
	}
	else
		__ticks = (uint16_t)__tmp;
    25d8:	6b a1       	ldd	r22, Y+35	; 0x23
    25da:	7c a1       	ldd	r23, Y+36	; 0x24
    25dc:	8d a1       	ldd	r24, Y+37	; 0x25
    25de:	9e a1       	ldd	r25, Y+38	; 0x26
    25e0:	0e 94 49 00 	call	0x92	; 0x92 <__fixunssfsi>
    25e4:	dc 01       	movw	r26, r24
    25e6:	cb 01       	movw	r24, r22
    25e8:	9a a3       	std	Y+34, r25	; 0x22
    25ea:	89 a3       	std	Y+33, r24	; 0x21
    25ec:	89 a1       	ldd	r24, Y+33	; 0x21
    25ee:	9a a1       	ldd	r25, Y+34	; 0x22
    25f0:	9e 8f       	std	Y+30, r25	; 0x1e
    25f2:	8d 8f       	std	Y+29, r24	; 0x1d
    25f4:	8d 8d       	ldd	r24, Y+29	; 0x1d
    25f6:	9e 8d       	ldd	r25, Y+30	; 0x1e
    25f8:	01 97       	sbiw	r24, 0x01	; 1
    25fa:	f1 f7       	brne	.-4      	; 0x25f8 <main+0x9f6>
    25fc:	9e 8f       	std	Y+30, r25	; 0x1e
    25fe:	8d 8f       	std	Y+29, r24	; 0x1d
					_delay_ms(500);

					setNewPass();
    2600:	0e 94 33 14 	call	0x2866	; 0x2866 <setNewPass>
			{
				/*Set the new password*/
				setNewPass();

				/*Confirm the password. in case of password mismatch, repeat the process of setting new password and confirming*/
				while (confirmPass() == CONFIRMATION_FAILED)
    2604:	0e 94 6e 15 	call	0x2adc	; 0x2adc <confirmPass>
    2608:	88 23       	and	r24, r24
    260a:	09 f4       	brne	.+2      	; 0x260e <main+0xa0c>
    260c:	7f cf       	rjmp	.-258    	; 0x250c <main+0x90a>
					_delay_ms(500);

					setNewPass();
				}

				LCD_goToRowCol(0,0);
    260e:	80 e0       	ldi	r24, 0x00	; 0
    2610:	60 e0       	ldi	r22, 0x00	; 0
    2612:	0e 94 90 0b 	call	0x1720	; 0x1720 <LCD_goToRowCol>
				LCD_displayString("Password Changed Successfully     ");
    2616:	8e e0       	ldi	r24, 0x0E	; 14
    2618:	91 e0       	ldi	r25, 0x01	; 1
    261a:	0e 94 46 0a 	call	0x148c	; 0x148c <LCD_displayString>
    261e:	80 e0       	ldi	r24, 0x00	; 0
    2620:	90 e0       	ldi	r25, 0x00	; 0
    2622:	aa ef       	ldi	r26, 0xFA	; 250
    2624:	b3 e4       	ldi	r27, 0x43	; 67
    2626:	89 8f       	std	Y+25, r24	; 0x19
    2628:	9a 8f       	std	Y+26, r25	; 0x1a
    262a:	ab 8f       	std	Y+27, r26	; 0x1b
    262c:	bc 8f       	std	Y+28, r27	; 0x1c
 */
void
_delay_ms(double __ms)
{
	uint16_t __ticks;
	double __tmp = ((F_CPU) / 4e3) * __ms;
    262e:	69 8d       	ldd	r22, Y+25	; 0x19
    2630:	7a 8d       	ldd	r23, Y+26	; 0x1a
    2632:	8b 8d       	ldd	r24, Y+27	; 0x1b
    2634:	9c 8d       	ldd	r25, Y+28	; 0x1c
    2636:	20 e0       	ldi	r18, 0x00	; 0
    2638:	30 e0       	ldi	r19, 0x00	; 0
    263a:	4a ef       	ldi	r20, 0xFA	; 250
    263c:	54 e4       	ldi	r21, 0x44	; 68
    263e:	0e 94 1f 02 	call	0x43e	; 0x43e <__mulsf3>
    2642:	dc 01       	movw	r26, r24
    2644:	cb 01       	movw	r24, r22
    2646:	8d 8b       	std	Y+21, r24	; 0x15
    2648:	9e 8b       	std	Y+22, r25	; 0x16
    264a:	af 8b       	std	Y+23, r26	; 0x17
    264c:	b8 8f       	std	Y+24, r27	; 0x18
	if (__tmp < 1.0)
    264e:	6d 89       	ldd	r22, Y+21	; 0x15
    2650:	7e 89       	ldd	r23, Y+22	; 0x16
    2652:	8f 89       	ldd	r24, Y+23	; 0x17
    2654:	98 8d       	ldd	r25, Y+24	; 0x18
    2656:	20 e0       	ldi	r18, 0x00	; 0
    2658:	30 e0       	ldi	r19, 0x00	; 0
    265a:	40 e8       	ldi	r20, 0x80	; 128
    265c:	5f e3       	ldi	r21, 0x3F	; 63
    265e:	0e 94 79 03 	call	0x6f2	; 0x6f2 <__ltsf2>
    2662:	88 23       	and	r24, r24
    2664:	2c f4       	brge	.+10     	; 0x2670 <main+0xa6e>
		__ticks = 1;
    2666:	81 e0       	ldi	r24, 0x01	; 1
    2668:	90 e0       	ldi	r25, 0x00	; 0
    266a:	9c 8b       	std	Y+20, r25	; 0x14
    266c:	8b 8b       	std	Y+19, r24	; 0x13
    266e:	3f c0       	rjmp	.+126    	; 0x26ee <main+0xaec>
	else if (__tmp > 65535)
    2670:	6d 89       	ldd	r22, Y+21	; 0x15
    2672:	7e 89       	ldd	r23, Y+22	; 0x16
    2674:	8f 89       	ldd	r24, Y+23	; 0x17
    2676:	98 8d       	ldd	r25, Y+24	; 0x18
    2678:	20 e0       	ldi	r18, 0x00	; 0
    267a:	3f ef       	ldi	r19, 0xFF	; 255
    267c:	4f e7       	ldi	r20, 0x7F	; 127
    267e:	57 e4       	ldi	r21, 0x47	; 71
    2680:	0e 94 19 03 	call	0x632	; 0x632 <__gtsf2>
    2684:	18 16       	cp	r1, r24
    2686:	4c f5       	brge	.+82     	; 0x26da <main+0xad8>
	{
		//	__ticks = requested delay in 1/10 ms
		__ticks = (uint16_t) (__ms * 10.0);
    2688:	69 8d       	ldd	r22, Y+25	; 0x19
    268a:	7a 8d       	ldd	r23, Y+26	; 0x1a
    268c:	8b 8d       	ldd	r24, Y+27	; 0x1b
    268e:	9c 8d       	ldd	r25, Y+28	; 0x1c
    2690:	20 e0       	ldi	r18, 0x00	; 0
    2692:	30 e0       	ldi	r19, 0x00	; 0
    2694:	40 e2       	ldi	r20, 0x20	; 32
    2696:	51 e4       	ldi	r21, 0x41	; 65
    2698:	0e 94 1f 02 	call	0x43e	; 0x43e <__mulsf3>
    269c:	dc 01       	movw	r26, r24
    269e:	cb 01       	movw	r24, r22
    26a0:	bc 01       	movw	r22, r24
    26a2:	cd 01       	movw	r24, r26
    26a4:	0e 94 49 00 	call	0x92	; 0x92 <__fixunssfsi>
    26a8:	dc 01       	movw	r26, r24
    26aa:	cb 01       	movw	r24, r22
    26ac:	9c 8b       	std	Y+20, r25	; 0x14
    26ae:	8b 8b       	std	Y+19, r24	; 0x13
    26b0:	0f c0       	rjmp	.+30     	; 0x26d0 <main+0xace>
    26b2:	88 ec       	ldi	r24, 0xC8	; 200
    26b4:	90 e0       	ldi	r25, 0x00	; 0
    26b6:	9a 8b       	std	Y+18, r25	; 0x12
    26b8:	89 8b       	std	Y+17, r24	; 0x11
    26ba:	89 89       	ldd	r24, Y+17	; 0x11
    26bc:	9a 89       	ldd	r25, Y+18	; 0x12
    26be:	01 97       	sbiw	r24, 0x01	; 1
    26c0:	f1 f7       	brne	.-4      	; 0x26be <main+0xabc>
    26c2:	9a 8b       	std	Y+18, r25	; 0x12
    26c4:	89 8b       	std	Y+17, r24	; 0x11
		while(__ticks)
		{
			// wait 1/10 ms
			_delay_loop_2(((F_CPU) / 4e3) / 10);
			__ticks --;
    26c6:	8b 89       	ldd	r24, Y+19	; 0x13
    26c8:	9c 89       	ldd	r25, Y+20	; 0x14
    26ca:	01 97       	sbiw	r24, 0x01	; 1
    26cc:	9c 8b       	std	Y+20, r25	; 0x14
    26ce:	8b 8b       	std	Y+19, r24	; 0x13
		__ticks = 1;
	else if (__tmp > 65535)
	{
		//	__ticks = requested delay in 1/10 ms
		__ticks = (uint16_t) (__ms * 10.0);
		while(__ticks)
    26d0:	8b 89       	ldd	r24, Y+19	; 0x13
    26d2:	9c 89       	ldd	r25, Y+20	; 0x14
    26d4:	00 97       	sbiw	r24, 0x00	; 0
    26d6:	69 f7       	brne	.-38     	; 0x26b2 <main+0xab0>
    26d8:	32 cc       	rjmp	.-1948   	; 0x1f3e <main+0x33c>
			__ticks --;
		}
		return;
	}
	else
		__ticks = (uint16_t)__tmp;
    26da:	6d 89       	ldd	r22, Y+21	; 0x15
    26dc:	7e 89       	ldd	r23, Y+22	; 0x16
    26de:	8f 89       	ldd	r24, Y+23	; 0x17
    26e0:	98 8d       	ldd	r25, Y+24	; 0x18
    26e2:	0e 94 49 00 	call	0x92	; 0x92 <__fixunssfsi>
    26e6:	dc 01       	movw	r26, r24
    26e8:	cb 01       	movw	r24, r22
    26ea:	9c 8b       	std	Y+20, r25	; 0x14
    26ec:	8b 8b       	std	Y+19, r24	; 0x13
    26ee:	8b 89       	ldd	r24, Y+19	; 0x13
    26f0:	9c 89       	ldd	r25, Y+20	; 0x14
    26f2:	98 8b       	std	Y+16, r25	; 0x10
    26f4:	8f 87       	std	Y+15, r24	; 0x0f
    26f6:	8f 85       	ldd	r24, Y+15	; 0x0f
    26f8:	98 89       	ldd	r25, Y+16	; 0x10
    26fa:	01 97       	sbiw	r24, 0x01	; 1
    26fc:	f1 f7       	brne	.-4      	; 0x26fa <main+0xaf8>
    26fe:	98 8b       	std	Y+16, r25	; 0x10
    2700:	8f 87       	std	Y+15, r24	; 0x0f
    2702:	1d cc       	rjmp	.-1990   	; 0x1f3e <main+0x33c>
			}

			/*If confirmation failed, display a message then return to the main options*/
			else
			{
				LCD_goToRowCol(0,0);
    2704:	80 e0       	ldi	r24, 0x00	; 0
    2706:	60 e0       	ldi	r22, 0x00	; 0
    2708:	0e 94 90 0b 	call	0x1720	; 0x1720 <LCD_goToRowCol>
				LCD_displayString("Confirmation Failed           ");
    270c:	80 e6       	ldi	r24, 0x60	; 96
    270e:	90 e0       	ldi	r25, 0x00	; 0
    2710:	0e 94 46 0a 	call	0x148c	; 0x148c <LCD_displayString>
    2714:	80 e0       	ldi	r24, 0x00	; 0
    2716:	90 e0       	ldi	r25, 0x00	; 0
    2718:	aa ef       	ldi	r26, 0xFA	; 250
    271a:	b3 e4       	ldi	r27, 0x43	; 67
    271c:	8b 87       	std	Y+11, r24	; 0x0b
    271e:	9c 87       	std	Y+12, r25	; 0x0c
    2720:	ad 87       	std	Y+13, r26	; 0x0d
    2722:	be 87       	std	Y+14, r27	; 0x0e
 */
void
_delay_ms(double __ms)
{
	uint16_t __ticks;
	double __tmp = ((F_CPU) / 4e3) * __ms;
    2724:	6b 85       	ldd	r22, Y+11	; 0x0b
    2726:	7c 85       	ldd	r23, Y+12	; 0x0c
    2728:	8d 85       	ldd	r24, Y+13	; 0x0d
    272a:	9e 85       	ldd	r25, Y+14	; 0x0e
    272c:	20 e0       	ldi	r18, 0x00	; 0
    272e:	30 e0       	ldi	r19, 0x00	; 0
    2730:	4a ef       	ldi	r20, 0xFA	; 250
    2732:	54 e4       	ldi	r21, 0x44	; 68
    2734:	0e 94 1f 02 	call	0x43e	; 0x43e <__mulsf3>
    2738:	dc 01       	movw	r26, r24
    273a:	cb 01       	movw	r24, r22
    273c:	8f 83       	std	Y+7, r24	; 0x07
    273e:	98 87       	std	Y+8, r25	; 0x08
    2740:	a9 87       	std	Y+9, r26	; 0x09
    2742:	ba 87       	std	Y+10, r27	; 0x0a
	if (__tmp < 1.0)
    2744:	6f 81       	ldd	r22, Y+7	; 0x07
    2746:	78 85       	ldd	r23, Y+8	; 0x08
    2748:	89 85       	ldd	r24, Y+9	; 0x09
    274a:	9a 85       	ldd	r25, Y+10	; 0x0a
    274c:	20 e0       	ldi	r18, 0x00	; 0
    274e:	30 e0       	ldi	r19, 0x00	; 0
    2750:	40 e8       	ldi	r20, 0x80	; 128
    2752:	5f e3       	ldi	r21, 0x3F	; 63
    2754:	0e 94 79 03 	call	0x6f2	; 0x6f2 <__ltsf2>
    2758:	88 23       	and	r24, r24
    275a:	2c f4       	brge	.+10     	; 0x2766 <main+0xb64>
		__ticks = 1;
    275c:	81 e0       	ldi	r24, 0x01	; 1
    275e:	90 e0       	ldi	r25, 0x00	; 0
    2760:	9e 83       	std	Y+6, r25	; 0x06
    2762:	8d 83       	std	Y+5, r24	; 0x05
    2764:	3f c0       	rjmp	.+126    	; 0x27e4 <main+0xbe2>
	else if (__tmp > 65535)
    2766:	6f 81       	ldd	r22, Y+7	; 0x07
    2768:	78 85       	ldd	r23, Y+8	; 0x08
    276a:	89 85       	ldd	r24, Y+9	; 0x09
    276c:	9a 85       	ldd	r25, Y+10	; 0x0a
    276e:	20 e0       	ldi	r18, 0x00	; 0
    2770:	3f ef       	ldi	r19, 0xFF	; 255
    2772:	4f e7       	ldi	r20, 0x7F	; 127
    2774:	57 e4       	ldi	r21, 0x47	; 71
    2776:	0e 94 19 03 	call	0x632	; 0x632 <__gtsf2>
    277a:	18 16       	cp	r1, r24
    277c:	4c f5       	brge	.+82     	; 0x27d0 <main+0xbce>
	{
		//	__ticks = requested delay in 1/10 ms
		__ticks = (uint16_t) (__ms * 10.0);
    277e:	6b 85       	ldd	r22, Y+11	; 0x0b
    2780:	7c 85       	ldd	r23, Y+12	; 0x0c
    2782:	8d 85       	ldd	r24, Y+13	; 0x0d
    2784:	9e 85       	ldd	r25, Y+14	; 0x0e
    2786:	20 e0       	ldi	r18, 0x00	; 0
    2788:	30 e0       	ldi	r19, 0x00	; 0
    278a:	40 e2       	ldi	r20, 0x20	; 32
    278c:	51 e4       	ldi	r21, 0x41	; 65
    278e:	0e 94 1f 02 	call	0x43e	; 0x43e <__mulsf3>
    2792:	dc 01       	movw	r26, r24
    2794:	cb 01       	movw	r24, r22
    2796:	bc 01       	movw	r22, r24
    2798:	cd 01       	movw	r24, r26
    279a:	0e 94 49 00 	call	0x92	; 0x92 <__fixunssfsi>
    279e:	dc 01       	movw	r26, r24
    27a0:	cb 01       	movw	r24, r22
    27a2:	9e 83       	std	Y+6, r25	; 0x06
    27a4:	8d 83       	std	Y+5, r24	; 0x05
    27a6:	0f c0       	rjmp	.+30     	; 0x27c6 <main+0xbc4>
    27a8:	88 ec       	ldi	r24, 0xC8	; 200
    27aa:	90 e0       	ldi	r25, 0x00	; 0
    27ac:	9c 83       	std	Y+4, r25	; 0x04
    27ae:	8b 83       	std	Y+3, r24	; 0x03
    27b0:	8b 81       	ldd	r24, Y+3	; 0x03
    27b2:	9c 81       	ldd	r25, Y+4	; 0x04
    27b4:	01 97       	sbiw	r24, 0x01	; 1
    27b6:	f1 f7       	brne	.-4      	; 0x27b4 <main+0xbb2>
    27b8:	9c 83       	std	Y+4, r25	; 0x04
    27ba:	8b 83       	std	Y+3, r24	; 0x03
		while(__ticks)
		{
			// wait 1/10 ms
			_delay_loop_2(((F_CPU) / 4e3) / 10);
			__ticks --;
    27bc:	8d 81       	ldd	r24, Y+5	; 0x05
    27be:	9e 81       	ldd	r25, Y+6	; 0x06
    27c0:	01 97       	sbiw	r24, 0x01	; 1
    27c2:	9e 83       	std	Y+6, r25	; 0x06
    27c4:	8d 83       	std	Y+5, r24	; 0x05
		__ticks = 1;
	else if (__tmp > 65535)
	{
		//	__ticks = requested delay in 1/10 ms
		__ticks = (uint16_t) (__ms * 10.0);
		while(__ticks)
    27c6:	8d 81       	ldd	r24, Y+5	; 0x05
    27c8:	9e 81       	ldd	r25, Y+6	; 0x06
    27ca:	00 97       	sbiw	r24, 0x00	; 0
    27cc:	69 f7       	brne	.-38     	; 0x27a8 <main+0xba6>
    27ce:	b7 cb       	rjmp	.-2194   	; 0x1f3e <main+0x33c>
			__ticks --;
		}
		return;
	}
	else
		__ticks = (uint16_t)__tmp;
    27d0:	6f 81       	ldd	r22, Y+7	; 0x07
    27d2:	78 85       	ldd	r23, Y+8	; 0x08
    27d4:	89 85       	ldd	r24, Y+9	; 0x09
    27d6:	9a 85       	ldd	r25, Y+10	; 0x0a
    27d8:	0e 94 49 00 	call	0x92	; 0x92 <__fixunssfsi>
    27dc:	dc 01       	movw	r26, r24
    27de:	cb 01       	movw	r24, r22
    27e0:	9e 83       	std	Y+6, r25	; 0x06
    27e2:	8d 83       	std	Y+5, r24	; 0x05
    27e4:	8d 81       	ldd	r24, Y+5	; 0x05
    27e6:	9e 81       	ldd	r25, Y+6	; 0x06
    27e8:	9a 83       	std	Y+2, r25	; 0x02
    27ea:	89 83       	std	Y+1, r24	; 0x01
    27ec:	89 81       	ldd	r24, Y+1	; 0x01
    27ee:	9a 81       	ldd	r25, Y+2	; 0x02
    27f0:	01 97       	sbiw	r24, 0x01	; 1
    27f2:	f1 f7       	brne	.-4      	; 0x27f0 <main+0xbee>
    27f4:	9a 83       	std	Y+2, r25	; 0x02
    27f6:	89 83       	std	Y+1, r24	; 0x01
    27f8:	a2 cb       	rjmp	.-2236   	; 0x1f3e <main+0x33c>

000027fa <alarmStart>:
* 		counterTop: TOP value to be compared with the counter value.
 * 		n_ticksRequired: Number of ticks required to count the required time, given the specified counterTop.
 * [Return]: None
 -------------------------------------------*/
void alarmStart(uint16 counterTop, uint8 n_ticksRequired)
{
    27fa:	df 93       	push	r29
    27fc:	cf 93       	push	r28
    27fe:	00 d0       	rcall	.+0      	; 0x2800 <alarmStart+0x6>
    2800:	0f 92       	push	r0
    2802:	cd b7       	in	r28, 0x3d	; 61
    2804:	de b7       	in	r29, 0x3e	; 62
    2806:	9a 83       	std	Y+2, r25	; 0x02
    2808:	89 83       	std	Y+1, r24	; 0x01
    280a:	6b 83       	std	Y+3, r22	; 0x03
	/*Set the callback function*/
	Ocu_setCbk(alarmStop);
    280c:	85 e2       	ldi	r24, 0x25	; 37
    280e:	94 e1       	ldi	r25, 0x14	; 20
    2810:	0e 94 b7 0b 	call	0x176e	; 0x176e <Ocu_setCbk>

	/*Send a command to the Control ECU to start the alarm*/
	UART_sendByte(START_ALARM);
    2814:	8a e8       	ldi	r24, 0x8A	; 138
    2816:	0e 94 69 0d 	call	0x1ad2	; 0x1ad2 <UART_sendByte>

	alarmOn_flag = 1;
    281a:	81 e0       	ldi	r24, 0x01	; 1
    281c:	80 93 2b 02 	sts	0x022B, r24
	LCD_clear();
    2820:	0e 94 86 0b 	call	0x170c	; 0x170c <LCD_clear>
	LCD_goToRowCol(0,7);
    2824:	80 e0       	ldi	r24, 0x00	; 0
    2826:	67 e0       	ldi	r22, 0x07	; 7
    2828:	0e 94 90 0b 	call	0x1720	; 0x1720 <LCD_goToRowCol>
	LCD_displayString("INTRUDER ALERT!!! ");
    282c:	81 e3       	ldi	r24, 0x31	; 49
    282e:	91 e0       	ldi	r25, 0x01	; 1
    2830:	0e 94 46 0a 	call	0x148c	; 0x148c <LCD_displayString>



	/*start the timer*/
	Ocu_start(counterTop, n_ticksRequired);
    2834:	89 81       	ldd	r24, Y+1	; 0x01
    2836:	9a 81       	ldd	r25, Y+2	; 0x02
    2838:	6b 81       	ldd	r22, Y+3	; 0x03
    283a:	0e 94 06 0c 	call	0x180c	; 0x180c <Ocu_start>


}
    283e:	0f 90       	pop	r0
    2840:	0f 90       	pop	r0
    2842:	0f 90       	pop	r0
    2844:	cf 91       	pop	r28
    2846:	df 91       	pop	r29
    2848:	08 95       	ret

0000284a <alarmStop>:
 * [Description]: a callback function that is executed when a specified time period has passed
 * [Args]: None
 * [Return]: None
 -------------------------------------------*/
void alarmStop()
{
    284a:	df 93       	push	r29
    284c:	cf 93       	push	r28
    284e:	cd b7       	in	r28, 0x3d	; 61
    2850:	de b7       	in	r29, 0x3e	; 62
	alarmOn_flag = 0;
    2852:	10 92 2b 02 	sts	0x022B, r1

	/*Send a command to the Control ECU to stop the alarm ========>[BUG#1]*/
	UART_sendByte(STOP_ALARM);
    2856:	88 ea       	ldi	r24, 0xA8	; 168
    2858:	0e 94 69 0d 	call	0x1ad2	; 0x1ad2 <UART_sendByte>

	/*stop the timer*/
	Ocu_stop();
    285c:	0e 94 29 0c 	call	0x1852	; 0x1852 <Ocu_stop>
}
    2860:	cf 91       	pop	r28
    2862:	df 91       	pop	r29
    2864:	08 95       	ret

00002866 <setNewPass>:
 * [Description]: lets the user set a new password that would be saved in the EEPROM
 * [Args]: None
 * [Return]: None
 -------------------------------------------*/
void setNewPass()
{
    2866:	df 93       	push	r29
    2868:	cf 93       	push	r28
    286a:	cd b7       	in	r28, 0x3d	; 61
    286c:	de b7       	in	r29, 0x3e	; 62
    286e:	6c 97       	sbiw	r28, 0x1c	; 28
    2870:	0f b6       	in	r0, 0x3f	; 63
    2872:	f8 94       	cli
    2874:	de bf       	out	0x3e, r29	; 62
    2876:	0f be       	out	0x3f, r0	; 63
    2878:	cd bf       	out	0x3d, r28	; 61
	/*Send a command to the Control ECU to start saving the received password*/
	UART_sendByte(SET_NEW_PASS);
    287a:	80 ef       	ldi	r24, 0xF0	; 240
    287c:	0e 94 69 0d 	call	0x1ad2	; 0x1ad2 <UART_sendByte>

	/*Display instructions for the user*/
	LCD_goToRowCol(0,0);
    2880:	80 e0       	ldi	r24, 0x00	; 0
    2882:	60 e0       	ldi	r22, 0x00	; 0
    2884:	0e 94 90 0b 	call	0x1720	; 0x1720 <LCD_goToRowCol>
	LCD_displayString("Please Enter New Pass:        ");
    2888:	84 e4       	ldi	r24, 0x44	; 68
    288a:	91 e0       	ldi	r25, 0x01	; 1
    288c:	0e 94 46 0a 	call	0x148c	; 0x148c <LCD_displayString>
	LCD_goToRowCol(1,0);
    2890:	81 e0       	ldi	r24, 0x01	; 1
    2892:	60 e0       	ldi	r22, 0x00	; 0
    2894:	0e 94 90 0b 	call	0x1720	; 0x1720 <LCD_goToRowCol>
	LCD_displayString("-----                  ");
    2898:	83 e6       	ldi	r24, 0x63	; 99
    289a:	91 e0       	ldi	r25, 0x01	; 1
    289c:	0e 94 46 0a 	call	0x148c	; 0x148c <LCD_displayString>

	/*initialize the digits counter*/
	password_counter = 0;
    28a0:	10 92 2c 02 	sts	0x022C, r1

	/*move the cursor to the beginning of the second row, where the password is to be displayed*/
	LCD_goToRowCol(1,0);
    28a4:	81 e0       	ldi	r24, 0x01	; 1
    28a6:	60 e0       	ldi	r22, 0x00	; 0
    28a8:	0e 94 90 0b 	call	0x1720	; 0x1720 <LCD_goToRowCol>
    28ac:	82 c0       	rjmp	.+260    	; 0x29b2 <setNewPass+0x14c>

	/*Enter 5 digits, and transmit them to the Control ECU*/
	while(password_counter < PASSWORD_LENGTH)
	{
		key_f = keypad_getPressedKey();
    28ae:	0e 94 ab 16 	call	0x2d56	; 0x2d56 <keypad_getPressedKey>
    28b2:	80 93 2d 02 	sts	0x022D, r24

		/*Send the digit to the Control ECU*/
		UART_sendByte(key_f);
    28b6:	80 91 2d 02 	lds	r24, 0x022D
    28ba:	0e 94 69 0d 	call	0x1ad2	; 0x1ad2 <UART_sendByte>
    28be:	80 e0       	ldi	r24, 0x00	; 0
    28c0:	90 e0       	ldi	r25, 0x00	; 0
    28c2:	a8 ec       	ldi	r26, 0xC8	; 200
    28c4:	b3 e4       	ldi	r27, 0x43	; 67
    28c6:	89 8f       	std	Y+25, r24	; 0x19
    28c8:	9a 8f       	std	Y+26, r25	; 0x1a
    28ca:	ab 8f       	std	Y+27, r26	; 0x1b
    28cc:	bc 8f       	std	Y+28, r27	; 0x1c
 */
void
_delay_ms(double __ms)
{
	uint16_t __ticks;
	double __tmp = ((F_CPU) / 4e3) * __ms;
    28ce:	69 8d       	ldd	r22, Y+25	; 0x19
    28d0:	7a 8d       	ldd	r23, Y+26	; 0x1a
    28d2:	8b 8d       	ldd	r24, Y+27	; 0x1b
    28d4:	9c 8d       	ldd	r25, Y+28	; 0x1c
    28d6:	20 e0       	ldi	r18, 0x00	; 0
    28d8:	30 e0       	ldi	r19, 0x00	; 0
    28da:	4a ef       	ldi	r20, 0xFA	; 250
    28dc:	54 e4       	ldi	r21, 0x44	; 68
    28de:	0e 94 1f 02 	call	0x43e	; 0x43e <__mulsf3>
    28e2:	dc 01       	movw	r26, r24
    28e4:	cb 01       	movw	r24, r22
    28e6:	8d 8b       	std	Y+21, r24	; 0x15
    28e8:	9e 8b       	std	Y+22, r25	; 0x16
    28ea:	af 8b       	std	Y+23, r26	; 0x17
    28ec:	b8 8f       	std	Y+24, r27	; 0x18
	if (__tmp < 1.0)
    28ee:	6d 89       	ldd	r22, Y+21	; 0x15
    28f0:	7e 89       	ldd	r23, Y+22	; 0x16
    28f2:	8f 89       	ldd	r24, Y+23	; 0x17
    28f4:	98 8d       	ldd	r25, Y+24	; 0x18
    28f6:	20 e0       	ldi	r18, 0x00	; 0
    28f8:	30 e0       	ldi	r19, 0x00	; 0
    28fa:	40 e8       	ldi	r20, 0x80	; 128
    28fc:	5f e3       	ldi	r21, 0x3F	; 63
    28fe:	0e 94 79 03 	call	0x6f2	; 0x6f2 <__ltsf2>
    2902:	88 23       	and	r24, r24
    2904:	2c f4       	brge	.+10     	; 0x2910 <setNewPass+0xaa>
		__ticks = 1;
    2906:	81 e0       	ldi	r24, 0x01	; 1
    2908:	90 e0       	ldi	r25, 0x00	; 0
    290a:	9c 8b       	std	Y+20, r25	; 0x14
    290c:	8b 8b       	std	Y+19, r24	; 0x13
    290e:	3f c0       	rjmp	.+126    	; 0x298e <setNewPass+0x128>
	else if (__tmp > 65535)
    2910:	6d 89       	ldd	r22, Y+21	; 0x15
    2912:	7e 89       	ldd	r23, Y+22	; 0x16
    2914:	8f 89       	ldd	r24, Y+23	; 0x17
    2916:	98 8d       	ldd	r25, Y+24	; 0x18
    2918:	20 e0       	ldi	r18, 0x00	; 0
    291a:	3f ef       	ldi	r19, 0xFF	; 255
    291c:	4f e7       	ldi	r20, 0x7F	; 127
    291e:	57 e4       	ldi	r21, 0x47	; 71
    2920:	0e 94 19 03 	call	0x632	; 0x632 <__gtsf2>
    2924:	18 16       	cp	r1, r24
    2926:	4c f5       	brge	.+82     	; 0x297a <setNewPass+0x114>
	{
		//	__ticks = requested delay in 1/10 ms
		__ticks = (uint16_t) (__ms * 10.0);
    2928:	69 8d       	ldd	r22, Y+25	; 0x19
    292a:	7a 8d       	ldd	r23, Y+26	; 0x1a
    292c:	8b 8d       	ldd	r24, Y+27	; 0x1b
    292e:	9c 8d       	ldd	r25, Y+28	; 0x1c
    2930:	20 e0       	ldi	r18, 0x00	; 0
    2932:	30 e0       	ldi	r19, 0x00	; 0
    2934:	40 e2       	ldi	r20, 0x20	; 32
    2936:	51 e4       	ldi	r21, 0x41	; 65
    2938:	0e 94 1f 02 	call	0x43e	; 0x43e <__mulsf3>
    293c:	dc 01       	movw	r26, r24
    293e:	cb 01       	movw	r24, r22
    2940:	bc 01       	movw	r22, r24
    2942:	cd 01       	movw	r24, r26
    2944:	0e 94 49 00 	call	0x92	; 0x92 <__fixunssfsi>
    2948:	dc 01       	movw	r26, r24
    294a:	cb 01       	movw	r24, r22
    294c:	9c 8b       	std	Y+20, r25	; 0x14
    294e:	8b 8b       	std	Y+19, r24	; 0x13
    2950:	0f c0       	rjmp	.+30     	; 0x2970 <setNewPass+0x10a>
    2952:	88 ec       	ldi	r24, 0xC8	; 200
    2954:	90 e0       	ldi	r25, 0x00	; 0
    2956:	9a 8b       	std	Y+18, r25	; 0x12
    2958:	89 8b       	std	Y+17, r24	; 0x11
    295a:	89 89       	ldd	r24, Y+17	; 0x11
    295c:	9a 89       	ldd	r25, Y+18	; 0x12
    295e:	01 97       	sbiw	r24, 0x01	; 1
    2960:	f1 f7       	brne	.-4      	; 0x295e <setNewPass+0xf8>
    2962:	9a 8b       	std	Y+18, r25	; 0x12
    2964:	89 8b       	std	Y+17, r24	; 0x11
		while(__ticks)
		{
			// wait 1/10 ms
			_delay_loop_2(((F_CPU) / 4e3) / 10);
			__ticks --;
    2966:	8b 89       	ldd	r24, Y+19	; 0x13
    2968:	9c 89       	ldd	r25, Y+20	; 0x14
    296a:	01 97       	sbiw	r24, 0x01	; 1
    296c:	9c 8b       	std	Y+20, r25	; 0x14
    296e:	8b 8b       	std	Y+19, r24	; 0x13
		__ticks = 1;
	else if (__tmp > 65535)
	{
		//	__ticks = requested delay in 1/10 ms
		__ticks = (uint16_t) (__ms * 10.0);
		while(__ticks)
    2970:	8b 89       	ldd	r24, Y+19	; 0x13
    2972:	9c 89       	ldd	r25, Y+20	; 0x14
    2974:	00 97       	sbiw	r24, 0x00	; 0
    2976:	69 f7       	brne	.-38     	; 0x2952 <setNewPass+0xec>
    2978:	14 c0       	rjmp	.+40     	; 0x29a2 <setNewPass+0x13c>
			__ticks --;
		}
		return;
	}
	else
		__ticks = (uint16_t)__tmp;
    297a:	6d 89       	ldd	r22, Y+21	; 0x15
    297c:	7e 89       	ldd	r23, Y+22	; 0x16
    297e:	8f 89       	ldd	r24, Y+23	; 0x17
    2980:	98 8d       	ldd	r25, Y+24	; 0x18
    2982:	0e 94 49 00 	call	0x92	; 0x92 <__fixunssfsi>
    2986:	dc 01       	movw	r26, r24
    2988:	cb 01       	movw	r24, r22
    298a:	9c 8b       	std	Y+20, r25	; 0x14
    298c:	8b 8b       	std	Y+19, r24	; 0x13
    298e:	8b 89       	ldd	r24, Y+19	; 0x13
    2990:	9c 89       	ldd	r25, Y+20	; 0x14
    2992:	98 8b       	std	Y+16, r25	; 0x10
    2994:	8f 87       	std	Y+15, r24	; 0x0f
    2996:	8f 85       	ldd	r24, Y+15	; 0x0f
    2998:	98 89       	ldd	r25, Y+16	; 0x10
    299a:	01 97       	sbiw	r24, 0x01	; 1
    299c:	f1 f7       	brne	.-4      	; 0x299a <setNewPass+0x134>
    299e:	98 8b       	std	Y+16, r25	; 0x10
    29a0:	8f 87       	std	Y+15, r24	; 0x0f
		/*delay to prevent digit replication*/
		_delay_ms(400);

		/*Display '*' instead of the actual digit*/
		LCD_displayCharacter('*');
    29a2:	8a e2       	ldi	r24, 0x2A	; 42
    29a4:	0e 94 4a 08 	call	0x1094	; 0x1094 <LCD_displayCharacter>

		password_counter++;
    29a8:	80 91 2c 02 	lds	r24, 0x022C
    29ac:	8f 5f       	subi	r24, 0xFF	; 255
    29ae:	80 93 2c 02 	sts	0x022C, r24

	/*move the cursor to the beginning of the second row, where the password is to be displayed*/
	LCD_goToRowCol(1,0);

	/*Enter 5 digits, and transmit them to the Control ECU*/
	while(password_counter < PASSWORD_LENGTH)
    29b2:	80 91 2c 02 	lds	r24, 0x022C
    29b6:	85 30       	cpi	r24, 0x05	; 5
    29b8:	08 f4       	brcc	.+2      	; 0x29bc <setNewPass+0x156>
    29ba:	79 cf       	rjmp	.-270    	; 0x28ae <setNewPass+0x48>

		password_counter++;
	}

	/*Display instructions for the user*/
	LCD_goToRowCol(0,0);
    29bc:	80 e0       	ldi	r24, 0x00	; 0
    29be:	60 e0       	ldi	r22, 0x00	; 0
    29c0:	0e 94 90 0b 	call	0x1720	; 0x1720 <LCD_goToRowCol>
	LCD_displayString("Press 'C' To Enter.           ");
    29c4:	8b e7       	ldi	r24, 0x7B	; 123
    29c6:	91 e0       	ldi	r25, 0x01	; 1
    29c8:	0e 94 46 0a 	call	0x148c	; 0x148c <LCD_displayString>

	/*wait until the user enters 'C'*/
	key_f = keypad_getPressedKey();
    29cc:	0e 94 ab 16 	call	0x2d56	; 0x2d56 <keypad_getPressedKey>
    29d0:	80 93 2d 02 	sts	0x022D, r24
    29d4:	04 c0       	rjmp	.+8      	; 0x29de <setNewPass+0x178>
	while(key_f != 'C')
	{
		key_f = keypad_getPressedKey();
    29d6:	0e 94 ab 16 	call	0x2d56	; 0x2d56 <keypad_getPressedKey>
    29da:	80 93 2d 02 	sts	0x022D, r24
	LCD_goToRowCol(0,0);
	LCD_displayString("Press 'C' To Enter.           ");

	/*wait until the user enters 'C'*/
	key_f = keypad_getPressedKey();
	while(key_f != 'C')
    29de:	80 91 2d 02 	lds	r24, 0x022D
    29e2:	83 34       	cpi	r24, 0x43	; 67
    29e4:	c1 f7       	brne	.-16     	; 0x29d6 <setNewPass+0x170>
    29e6:	80 e0       	ldi	r24, 0x00	; 0
    29e8:	90 e0       	ldi	r25, 0x00	; 0
    29ea:	a8 ec       	ldi	r26, 0xC8	; 200
    29ec:	b3 e4       	ldi	r27, 0x43	; 67
    29ee:	8b 87       	std	Y+11, r24	; 0x0b
    29f0:	9c 87       	std	Y+12, r25	; 0x0c
    29f2:	ad 87       	std	Y+13, r26	; 0x0d
    29f4:	be 87       	std	Y+14, r27	; 0x0e
 */
void
_delay_ms(double __ms)
{
	uint16_t __ticks;
	double __tmp = ((F_CPU) / 4e3) * __ms;
    29f6:	6b 85       	ldd	r22, Y+11	; 0x0b
    29f8:	7c 85       	ldd	r23, Y+12	; 0x0c
    29fa:	8d 85       	ldd	r24, Y+13	; 0x0d
    29fc:	9e 85       	ldd	r25, Y+14	; 0x0e
    29fe:	20 e0       	ldi	r18, 0x00	; 0
    2a00:	30 e0       	ldi	r19, 0x00	; 0
    2a02:	4a ef       	ldi	r20, 0xFA	; 250
    2a04:	54 e4       	ldi	r21, 0x44	; 68
    2a06:	0e 94 1f 02 	call	0x43e	; 0x43e <__mulsf3>
    2a0a:	dc 01       	movw	r26, r24
    2a0c:	cb 01       	movw	r24, r22
    2a0e:	8f 83       	std	Y+7, r24	; 0x07
    2a10:	98 87       	std	Y+8, r25	; 0x08
    2a12:	a9 87       	std	Y+9, r26	; 0x09
    2a14:	ba 87       	std	Y+10, r27	; 0x0a
	if (__tmp < 1.0)
    2a16:	6f 81       	ldd	r22, Y+7	; 0x07
    2a18:	78 85       	ldd	r23, Y+8	; 0x08
    2a1a:	89 85       	ldd	r24, Y+9	; 0x09
    2a1c:	9a 85       	ldd	r25, Y+10	; 0x0a
    2a1e:	20 e0       	ldi	r18, 0x00	; 0
    2a20:	30 e0       	ldi	r19, 0x00	; 0
    2a22:	40 e8       	ldi	r20, 0x80	; 128
    2a24:	5f e3       	ldi	r21, 0x3F	; 63
    2a26:	0e 94 79 03 	call	0x6f2	; 0x6f2 <__ltsf2>
    2a2a:	88 23       	and	r24, r24
    2a2c:	2c f4       	brge	.+10     	; 0x2a38 <setNewPass+0x1d2>
		__ticks = 1;
    2a2e:	81 e0       	ldi	r24, 0x01	; 1
    2a30:	90 e0       	ldi	r25, 0x00	; 0
    2a32:	9e 83       	std	Y+6, r25	; 0x06
    2a34:	8d 83       	std	Y+5, r24	; 0x05
    2a36:	3f c0       	rjmp	.+126    	; 0x2ab6 <setNewPass+0x250>
	else if (__tmp > 65535)
    2a38:	6f 81       	ldd	r22, Y+7	; 0x07
    2a3a:	78 85       	ldd	r23, Y+8	; 0x08
    2a3c:	89 85       	ldd	r24, Y+9	; 0x09
    2a3e:	9a 85       	ldd	r25, Y+10	; 0x0a
    2a40:	20 e0       	ldi	r18, 0x00	; 0
    2a42:	3f ef       	ldi	r19, 0xFF	; 255
    2a44:	4f e7       	ldi	r20, 0x7F	; 127
    2a46:	57 e4       	ldi	r21, 0x47	; 71
    2a48:	0e 94 19 03 	call	0x632	; 0x632 <__gtsf2>
    2a4c:	18 16       	cp	r1, r24
    2a4e:	4c f5       	brge	.+82     	; 0x2aa2 <setNewPass+0x23c>
	{
		//	__ticks = requested delay in 1/10 ms
		__ticks = (uint16_t) (__ms * 10.0);
    2a50:	6b 85       	ldd	r22, Y+11	; 0x0b
    2a52:	7c 85       	ldd	r23, Y+12	; 0x0c
    2a54:	8d 85       	ldd	r24, Y+13	; 0x0d
    2a56:	9e 85       	ldd	r25, Y+14	; 0x0e
    2a58:	20 e0       	ldi	r18, 0x00	; 0
    2a5a:	30 e0       	ldi	r19, 0x00	; 0
    2a5c:	40 e2       	ldi	r20, 0x20	; 32
    2a5e:	51 e4       	ldi	r21, 0x41	; 65
    2a60:	0e 94 1f 02 	call	0x43e	; 0x43e <__mulsf3>
    2a64:	dc 01       	movw	r26, r24
    2a66:	cb 01       	movw	r24, r22
    2a68:	bc 01       	movw	r22, r24
    2a6a:	cd 01       	movw	r24, r26
    2a6c:	0e 94 49 00 	call	0x92	; 0x92 <__fixunssfsi>
    2a70:	dc 01       	movw	r26, r24
    2a72:	cb 01       	movw	r24, r22
    2a74:	9e 83       	std	Y+6, r25	; 0x06
    2a76:	8d 83       	std	Y+5, r24	; 0x05
    2a78:	0f c0       	rjmp	.+30     	; 0x2a98 <setNewPass+0x232>
    2a7a:	88 ec       	ldi	r24, 0xC8	; 200
    2a7c:	90 e0       	ldi	r25, 0x00	; 0
    2a7e:	9c 83       	std	Y+4, r25	; 0x04
    2a80:	8b 83       	std	Y+3, r24	; 0x03
    2a82:	8b 81       	ldd	r24, Y+3	; 0x03
    2a84:	9c 81       	ldd	r25, Y+4	; 0x04
    2a86:	01 97       	sbiw	r24, 0x01	; 1
    2a88:	f1 f7       	brne	.-4      	; 0x2a86 <setNewPass+0x220>
    2a8a:	9c 83       	std	Y+4, r25	; 0x04
    2a8c:	8b 83       	std	Y+3, r24	; 0x03
		while(__ticks)
		{
			// wait 1/10 ms
			_delay_loop_2(((F_CPU) / 4e3) / 10);
			__ticks --;
    2a8e:	8d 81       	ldd	r24, Y+5	; 0x05
    2a90:	9e 81       	ldd	r25, Y+6	; 0x06
    2a92:	01 97       	sbiw	r24, 0x01	; 1
    2a94:	9e 83       	std	Y+6, r25	; 0x06
    2a96:	8d 83       	std	Y+5, r24	; 0x05
		__ticks = 1;
	else if (__tmp > 65535)
	{
		//	__ticks = requested delay in 1/10 ms
		__ticks = (uint16_t) (__ms * 10.0);
		while(__ticks)
    2a98:	8d 81       	ldd	r24, Y+5	; 0x05
    2a9a:	9e 81       	ldd	r25, Y+6	; 0x06
    2a9c:	00 97       	sbiw	r24, 0x00	; 0
    2a9e:	69 f7       	brne	.-38     	; 0x2a7a <setNewPass+0x214>
    2aa0:	14 c0       	rjmp	.+40     	; 0x2aca <setNewPass+0x264>
			__ticks --;
		}
		return;
	}
	else
		__ticks = (uint16_t)__tmp;
    2aa2:	6f 81       	ldd	r22, Y+7	; 0x07
    2aa4:	78 85       	ldd	r23, Y+8	; 0x08
    2aa6:	89 85       	ldd	r24, Y+9	; 0x09
    2aa8:	9a 85       	ldd	r25, Y+10	; 0x0a
    2aaa:	0e 94 49 00 	call	0x92	; 0x92 <__fixunssfsi>
    2aae:	dc 01       	movw	r26, r24
    2ab0:	cb 01       	movw	r24, r22
    2ab2:	9e 83       	std	Y+6, r25	; 0x06
    2ab4:	8d 83       	std	Y+5, r24	; 0x05
    2ab6:	8d 81       	ldd	r24, Y+5	; 0x05
    2ab8:	9e 81       	ldd	r25, Y+6	; 0x06
    2aba:	9a 83       	std	Y+2, r25	; 0x02
    2abc:	89 83       	std	Y+1, r24	; 0x01
    2abe:	89 81       	ldd	r24, Y+1	; 0x01
    2ac0:	9a 81       	ldd	r25, Y+2	; 0x02
    2ac2:	01 97       	sbiw	r24, 0x01	; 1
    2ac4:	f1 f7       	brne	.-4      	; 0x2ac2 <setNewPass+0x25c>
    2ac6:	9a 83       	std	Y+2, r25	; 0x02
    2ac8:	89 83       	std	Y+1, r24	; 0x01
	{
		key_f = keypad_getPressedKey();

	}
	_delay_ms(400); /*if not introduced, the first digit in the confirmation password would be 'C'*/
}
    2aca:	6c 96       	adiw	r28, 0x1c	; 28
    2acc:	0f b6       	in	r0, 0x3f	; 63
    2ace:	f8 94       	cli
    2ad0:	de bf       	out	0x3e, r29	; 62
    2ad2:	0f be       	out	0x3f, r0	; 63
    2ad4:	cd bf       	out	0x3d, r28	; 61
    2ad6:	cf 91       	pop	r28
    2ad8:	df 91       	pop	r29
    2ada:	08 95       	ret

00002adc <confirmPass>:
 * [Return]:
		CONFIRMATION_FAILED for password mismatch
		CONFIRMATION_PASS for password match
 -------------------------------------------*/
uint8 confirmPass()
{
    2adc:	df 93       	push	r29
    2ade:	cf 93       	push	r28
    2ae0:	cd b7       	in	r28, 0x3d	; 61
    2ae2:	de b7       	in	r29, 0x3e	; 62
    2ae4:	6c 97       	sbiw	r28, 0x1c	; 28
    2ae6:	0f b6       	in	r0, 0x3f	; 63
    2ae8:	f8 94       	cli
    2aea:	de bf       	out	0x3e, r29	; 62
    2aec:	0f be       	out	0x3f, r0	; 63
    2aee:	cd bf       	out	0x3d, r28	; 61
	/*Send a command to the Control ECU to start password confirmation*/
	UART_sendByte(CONFIRM_PASS);
    2af0:	8f e0       	ldi	r24, 0x0F	; 15
    2af2:	0e 94 69 0d 	call	0x1ad2	; 0x1ad2 <UART_sendByte>

	/*Display instructions for the user*/
	LCD_goToRowCol(0,0);
    2af6:	80 e0       	ldi	r24, 0x00	; 0
    2af8:	60 e0       	ldi	r22, 0x00	; 0
    2afa:	0e 94 90 0b 	call	0x1720	; 0x1720 <LCD_goToRowCol>
	LCD_displayString("Please Confirm The Password:           ");
    2afe:	8a e9       	ldi	r24, 0x9A	; 154
    2b00:	91 e0       	ldi	r25, 0x01	; 1
    2b02:	0e 94 46 0a 	call	0x148c	; 0x148c <LCD_displayString>
	LCD_goToRowCol(1,0);
    2b06:	81 e0       	ldi	r24, 0x01	; 1
    2b08:	60 e0       	ldi	r22, 0x00	; 0
    2b0a:	0e 94 90 0b 	call	0x1720	; 0x1720 <LCD_goToRowCol>
	LCD_displayString("-----                     ");
    2b0e:	82 ec       	ldi	r24, 0xC2	; 194
    2b10:	91 e0       	ldi	r25, 0x01	; 1
    2b12:	0e 94 46 0a 	call	0x148c	; 0x148c <LCD_displayString>

	/*Initialize the digits counter*/
	password_counter = 0;
    2b16:	10 92 2c 02 	sts	0x022C, r1

	/*move the cursor to the second row, where the password is to be displayed*/
	LCD_goToRowCol(1,0);
    2b1a:	81 e0       	ldi	r24, 0x01	; 1
    2b1c:	60 e0       	ldi	r22, 0x00	; 0
    2b1e:	0e 94 90 0b 	call	0x1720	; 0x1720 <LCD_goToRowCol>
    2b22:	82 c0       	rjmp	.+260    	; 0x2c28 <confirmPass+0x14c>

	/*Send the confirmation password to the control ECU*/
	while(password_counter < PASSWORD_LENGTH)
	{
		key_f = keypad_getPressedKey();
    2b24:	0e 94 ab 16 	call	0x2d56	; 0x2d56 <keypad_getPressedKey>
    2b28:	80 93 2d 02 	sts	0x022D, r24
		UART_sendByte(key_f);
    2b2c:	80 91 2d 02 	lds	r24, 0x022D
    2b30:	0e 94 69 0d 	call	0x1ad2	; 0x1ad2 <UART_sendByte>
    2b34:	80 e0       	ldi	r24, 0x00	; 0
    2b36:	90 e0       	ldi	r25, 0x00	; 0
    2b38:	a8 ec       	ldi	r26, 0xC8	; 200
    2b3a:	b3 e4       	ldi	r27, 0x43	; 67
    2b3c:	89 8f       	std	Y+25, r24	; 0x19
    2b3e:	9a 8f       	std	Y+26, r25	; 0x1a
    2b40:	ab 8f       	std	Y+27, r26	; 0x1b
    2b42:	bc 8f       	std	Y+28, r27	; 0x1c
 */
void
_delay_ms(double __ms)
{
	uint16_t __ticks;
	double __tmp = ((F_CPU) / 4e3) * __ms;
    2b44:	69 8d       	ldd	r22, Y+25	; 0x19
    2b46:	7a 8d       	ldd	r23, Y+26	; 0x1a
    2b48:	8b 8d       	ldd	r24, Y+27	; 0x1b
    2b4a:	9c 8d       	ldd	r25, Y+28	; 0x1c
    2b4c:	20 e0       	ldi	r18, 0x00	; 0
    2b4e:	30 e0       	ldi	r19, 0x00	; 0
    2b50:	4a ef       	ldi	r20, 0xFA	; 250
    2b52:	54 e4       	ldi	r21, 0x44	; 68
    2b54:	0e 94 1f 02 	call	0x43e	; 0x43e <__mulsf3>
    2b58:	dc 01       	movw	r26, r24
    2b5a:	cb 01       	movw	r24, r22
    2b5c:	8d 8b       	std	Y+21, r24	; 0x15
    2b5e:	9e 8b       	std	Y+22, r25	; 0x16
    2b60:	af 8b       	std	Y+23, r26	; 0x17
    2b62:	b8 8f       	std	Y+24, r27	; 0x18
	if (__tmp < 1.0)
    2b64:	6d 89       	ldd	r22, Y+21	; 0x15
    2b66:	7e 89       	ldd	r23, Y+22	; 0x16
    2b68:	8f 89       	ldd	r24, Y+23	; 0x17
    2b6a:	98 8d       	ldd	r25, Y+24	; 0x18
    2b6c:	20 e0       	ldi	r18, 0x00	; 0
    2b6e:	30 e0       	ldi	r19, 0x00	; 0
    2b70:	40 e8       	ldi	r20, 0x80	; 128
    2b72:	5f e3       	ldi	r21, 0x3F	; 63
    2b74:	0e 94 79 03 	call	0x6f2	; 0x6f2 <__ltsf2>
    2b78:	88 23       	and	r24, r24
    2b7a:	2c f4       	brge	.+10     	; 0x2b86 <confirmPass+0xaa>
		__ticks = 1;
    2b7c:	81 e0       	ldi	r24, 0x01	; 1
    2b7e:	90 e0       	ldi	r25, 0x00	; 0
    2b80:	9c 8b       	std	Y+20, r25	; 0x14
    2b82:	8b 8b       	std	Y+19, r24	; 0x13
    2b84:	3f c0       	rjmp	.+126    	; 0x2c04 <confirmPass+0x128>
	else if (__tmp > 65535)
    2b86:	6d 89       	ldd	r22, Y+21	; 0x15
    2b88:	7e 89       	ldd	r23, Y+22	; 0x16
    2b8a:	8f 89       	ldd	r24, Y+23	; 0x17
    2b8c:	98 8d       	ldd	r25, Y+24	; 0x18
    2b8e:	20 e0       	ldi	r18, 0x00	; 0
    2b90:	3f ef       	ldi	r19, 0xFF	; 255
    2b92:	4f e7       	ldi	r20, 0x7F	; 127
    2b94:	57 e4       	ldi	r21, 0x47	; 71
    2b96:	0e 94 19 03 	call	0x632	; 0x632 <__gtsf2>
    2b9a:	18 16       	cp	r1, r24
    2b9c:	4c f5       	brge	.+82     	; 0x2bf0 <confirmPass+0x114>
	{
		//	__ticks = requested delay in 1/10 ms
		__ticks = (uint16_t) (__ms * 10.0);
    2b9e:	69 8d       	ldd	r22, Y+25	; 0x19
    2ba0:	7a 8d       	ldd	r23, Y+26	; 0x1a
    2ba2:	8b 8d       	ldd	r24, Y+27	; 0x1b
    2ba4:	9c 8d       	ldd	r25, Y+28	; 0x1c
    2ba6:	20 e0       	ldi	r18, 0x00	; 0
    2ba8:	30 e0       	ldi	r19, 0x00	; 0
    2baa:	40 e2       	ldi	r20, 0x20	; 32
    2bac:	51 e4       	ldi	r21, 0x41	; 65
    2bae:	0e 94 1f 02 	call	0x43e	; 0x43e <__mulsf3>
    2bb2:	dc 01       	movw	r26, r24
    2bb4:	cb 01       	movw	r24, r22
    2bb6:	bc 01       	movw	r22, r24
    2bb8:	cd 01       	movw	r24, r26
    2bba:	0e 94 49 00 	call	0x92	; 0x92 <__fixunssfsi>
    2bbe:	dc 01       	movw	r26, r24
    2bc0:	cb 01       	movw	r24, r22
    2bc2:	9c 8b       	std	Y+20, r25	; 0x14
    2bc4:	8b 8b       	std	Y+19, r24	; 0x13
    2bc6:	0f c0       	rjmp	.+30     	; 0x2be6 <confirmPass+0x10a>
    2bc8:	88 ec       	ldi	r24, 0xC8	; 200
    2bca:	90 e0       	ldi	r25, 0x00	; 0
    2bcc:	9a 8b       	std	Y+18, r25	; 0x12
    2bce:	89 8b       	std	Y+17, r24	; 0x11
    2bd0:	89 89       	ldd	r24, Y+17	; 0x11
    2bd2:	9a 89       	ldd	r25, Y+18	; 0x12
    2bd4:	01 97       	sbiw	r24, 0x01	; 1
    2bd6:	f1 f7       	brne	.-4      	; 0x2bd4 <confirmPass+0xf8>
    2bd8:	9a 8b       	std	Y+18, r25	; 0x12
    2bda:	89 8b       	std	Y+17, r24	; 0x11
		while(__ticks)
		{
			// wait 1/10 ms
			_delay_loop_2(((F_CPU) / 4e3) / 10);
			__ticks --;
    2bdc:	8b 89       	ldd	r24, Y+19	; 0x13
    2bde:	9c 89       	ldd	r25, Y+20	; 0x14
    2be0:	01 97       	sbiw	r24, 0x01	; 1
    2be2:	9c 8b       	std	Y+20, r25	; 0x14
    2be4:	8b 8b       	std	Y+19, r24	; 0x13
		__ticks = 1;
	else if (__tmp > 65535)
	{
		//	__ticks = requested delay in 1/10 ms
		__ticks = (uint16_t) (__ms * 10.0);
		while(__ticks)
    2be6:	8b 89       	ldd	r24, Y+19	; 0x13
    2be8:	9c 89       	ldd	r25, Y+20	; 0x14
    2bea:	00 97       	sbiw	r24, 0x00	; 0
    2bec:	69 f7       	brne	.-38     	; 0x2bc8 <confirmPass+0xec>
    2bee:	14 c0       	rjmp	.+40     	; 0x2c18 <confirmPass+0x13c>
			__ticks --;
		}
		return;
	}
	else
		__ticks = (uint16_t)__tmp;
    2bf0:	6d 89       	ldd	r22, Y+21	; 0x15
    2bf2:	7e 89       	ldd	r23, Y+22	; 0x16
    2bf4:	8f 89       	ldd	r24, Y+23	; 0x17
    2bf6:	98 8d       	ldd	r25, Y+24	; 0x18
    2bf8:	0e 94 49 00 	call	0x92	; 0x92 <__fixunssfsi>
    2bfc:	dc 01       	movw	r26, r24
    2bfe:	cb 01       	movw	r24, r22
    2c00:	9c 8b       	std	Y+20, r25	; 0x14
    2c02:	8b 8b       	std	Y+19, r24	; 0x13
    2c04:	8b 89       	ldd	r24, Y+19	; 0x13
    2c06:	9c 89       	ldd	r25, Y+20	; 0x14
    2c08:	98 8b       	std	Y+16, r25	; 0x10
    2c0a:	8f 87       	std	Y+15, r24	; 0x0f
    2c0c:	8f 85       	ldd	r24, Y+15	; 0x0f
    2c0e:	98 89       	ldd	r25, Y+16	; 0x10
    2c10:	01 97       	sbiw	r24, 0x01	; 1
    2c12:	f1 f7       	brne	.-4      	; 0x2c10 <confirmPass+0x134>
    2c14:	98 8b       	std	Y+16, r25	; 0x10
    2c16:	8f 87       	std	Y+15, r24	; 0x0f

		/*delay to prevent digit replication*/
		_delay_ms(400);

		/*Display '*' instead of the actual digit*/
		LCD_displayCharacter('*');
    2c18:	8a e2       	ldi	r24, 0x2A	; 42
    2c1a:	0e 94 4a 08 	call	0x1094	; 0x1094 <LCD_displayCharacter>

		password_counter++;
    2c1e:	80 91 2c 02 	lds	r24, 0x022C
    2c22:	8f 5f       	subi	r24, 0xFF	; 255
    2c24:	80 93 2c 02 	sts	0x022C, r24

	/*move the cursor to the second row, where the password is to be displayed*/
	LCD_goToRowCol(1,0);

	/*Send the confirmation password to the control ECU*/
	while(password_counter < PASSWORD_LENGTH)
    2c28:	80 91 2c 02 	lds	r24, 0x022C
    2c2c:	85 30       	cpi	r24, 0x05	; 5
    2c2e:	08 f4       	brcc	.+2      	; 0x2c32 <confirmPass+0x156>
    2c30:	79 cf       	rjmp	.-270    	; 0x2b24 <confirmPass+0x48>

		password_counter++;
	}

	/*Display instructions for the user*/
	LCD_goToRowCol(0,0);
    2c32:	80 e0       	ldi	r24, 0x00	; 0
    2c34:	60 e0       	ldi	r22, 0x00	; 0
    2c36:	0e 94 90 0b 	call	0x1720	; 0x1720 <LCD_goToRowCol>
	LCD_displayString("Press 'C' To Enter.         ");
    2c3a:	8d ed       	ldi	r24, 0xDD	; 221
    2c3c:	91 e0       	ldi	r25, 0x01	; 1
    2c3e:	0e 94 46 0a 	call	0x148c	; 0x148c <LCD_displayString>

	/*wait until the user enters 'C'*/
	key_f = keypad_getPressedKey();
    2c42:	0e 94 ab 16 	call	0x2d56	; 0x2d56 <keypad_getPressedKey>
    2c46:	80 93 2d 02 	sts	0x022D, r24
    2c4a:	04 c0       	rjmp	.+8      	; 0x2c54 <confirmPass+0x178>
	while(key_f != 'C')
	{
		key_f = keypad_getPressedKey();
    2c4c:	0e 94 ab 16 	call	0x2d56	; 0x2d56 <keypad_getPressedKey>
    2c50:	80 93 2d 02 	sts	0x022D, r24
	LCD_goToRowCol(0,0);
	LCD_displayString("Press 'C' To Enter.         ");

	/*wait until the user enters 'C'*/
	key_f = keypad_getPressedKey();
	while(key_f != 'C')
    2c54:	80 91 2d 02 	lds	r24, 0x022D
    2c58:	83 34       	cpi	r24, 0x43	; 67
    2c5a:	c1 f7       	brne	.-16     	; 0x2c4c <confirmPass+0x170>
    2c5c:	80 e0       	ldi	r24, 0x00	; 0
    2c5e:	90 e0       	ldi	r25, 0x00	; 0
    2c60:	a8 ec       	ldi	r26, 0xC8	; 200
    2c62:	b3 e4       	ldi	r27, 0x43	; 67
    2c64:	8b 87       	std	Y+11, r24	; 0x0b
    2c66:	9c 87       	std	Y+12, r25	; 0x0c
    2c68:	ad 87       	std	Y+13, r26	; 0x0d
    2c6a:	be 87       	std	Y+14, r27	; 0x0e
 */
void
_delay_ms(double __ms)
{
	uint16_t __ticks;
	double __tmp = ((F_CPU) / 4e3) * __ms;
    2c6c:	6b 85       	ldd	r22, Y+11	; 0x0b
    2c6e:	7c 85       	ldd	r23, Y+12	; 0x0c
    2c70:	8d 85       	ldd	r24, Y+13	; 0x0d
    2c72:	9e 85       	ldd	r25, Y+14	; 0x0e
    2c74:	20 e0       	ldi	r18, 0x00	; 0
    2c76:	30 e0       	ldi	r19, 0x00	; 0
    2c78:	4a ef       	ldi	r20, 0xFA	; 250
    2c7a:	54 e4       	ldi	r21, 0x44	; 68
    2c7c:	0e 94 1f 02 	call	0x43e	; 0x43e <__mulsf3>
    2c80:	dc 01       	movw	r26, r24
    2c82:	cb 01       	movw	r24, r22
    2c84:	8f 83       	std	Y+7, r24	; 0x07
    2c86:	98 87       	std	Y+8, r25	; 0x08
    2c88:	a9 87       	std	Y+9, r26	; 0x09
    2c8a:	ba 87       	std	Y+10, r27	; 0x0a
	if (__tmp < 1.0)
    2c8c:	6f 81       	ldd	r22, Y+7	; 0x07
    2c8e:	78 85       	ldd	r23, Y+8	; 0x08
    2c90:	89 85       	ldd	r24, Y+9	; 0x09
    2c92:	9a 85       	ldd	r25, Y+10	; 0x0a
    2c94:	20 e0       	ldi	r18, 0x00	; 0
    2c96:	30 e0       	ldi	r19, 0x00	; 0
    2c98:	40 e8       	ldi	r20, 0x80	; 128
    2c9a:	5f e3       	ldi	r21, 0x3F	; 63
    2c9c:	0e 94 79 03 	call	0x6f2	; 0x6f2 <__ltsf2>
    2ca0:	88 23       	and	r24, r24
    2ca2:	2c f4       	brge	.+10     	; 0x2cae <confirmPass+0x1d2>
		__ticks = 1;
    2ca4:	81 e0       	ldi	r24, 0x01	; 1
    2ca6:	90 e0       	ldi	r25, 0x00	; 0
    2ca8:	9e 83       	std	Y+6, r25	; 0x06
    2caa:	8d 83       	std	Y+5, r24	; 0x05
    2cac:	3f c0       	rjmp	.+126    	; 0x2d2c <confirmPass+0x250>
	else if (__tmp > 65535)
    2cae:	6f 81       	ldd	r22, Y+7	; 0x07
    2cb0:	78 85       	ldd	r23, Y+8	; 0x08
    2cb2:	89 85       	ldd	r24, Y+9	; 0x09
    2cb4:	9a 85       	ldd	r25, Y+10	; 0x0a
    2cb6:	20 e0       	ldi	r18, 0x00	; 0
    2cb8:	3f ef       	ldi	r19, 0xFF	; 255
    2cba:	4f e7       	ldi	r20, 0x7F	; 127
    2cbc:	57 e4       	ldi	r21, 0x47	; 71
    2cbe:	0e 94 19 03 	call	0x632	; 0x632 <__gtsf2>
    2cc2:	18 16       	cp	r1, r24
    2cc4:	4c f5       	brge	.+82     	; 0x2d18 <confirmPass+0x23c>
	{
		//	__ticks = requested delay in 1/10 ms
		__ticks = (uint16_t) (__ms * 10.0);
    2cc6:	6b 85       	ldd	r22, Y+11	; 0x0b
    2cc8:	7c 85       	ldd	r23, Y+12	; 0x0c
    2cca:	8d 85       	ldd	r24, Y+13	; 0x0d
    2ccc:	9e 85       	ldd	r25, Y+14	; 0x0e
    2cce:	20 e0       	ldi	r18, 0x00	; 0
    2cd0:	30 e0       	ldi	r19, 0x00	; 0
    2cd2:	40 e2       	ldi	r20, 0x20	; 32
    2cd4:	51 e4       	ldi	r21, 0x41	; 65
    2cd6:	0e 94 1f 02 	call	0x43e	; 0x43e <__mulsf3>
    2cda:	dc 01       	movw	r26, r24
    2cdc:	cb 01       	movw	r24, r22
    2cde:	bc 01       	movw	r22, r24
    2ce0:	cd 01       	movw	r24, r26
    2ce2:	0e 94 49 00 	call	0x92	; 0x92 <__fixunssfsi>
    2ce6:	dc 01       	movw	r26, r24
    2ce8:	cb 01       	movw	r24, r22
    2cea:	9e 83       	std	Y+6, r25	; 0x06
    2cec:	8d 83       	std	Y+5, r24	; 0x05
    2cee:	0f c0       	rjmp	.+30     	; 0x2d0e <confirmPass+0x232>
    2cf0:	88 ec       	ldi	r24, 0xC8	; 200
    2cf2:	90 e0       	ldi	r25, 0x00	; 0
    2cf4:	9c 83       	std	Y+4, r25	; 0x04
    2cf6:	8b 83       	std	Y+3, r24	; 0x03
    2cf8:	8b 81       	ldd	r24, Y+3	; 0x03
    2cfa:	9c 81       	ldd	r25, Y+4	; 0x04
    2cfc:	01 97       	sbiw	r24, 0x01	; 1
    2cfe:	f1 f7       	brne	.-4      	; 0x2cfc <confirmPass+0x220>
    2d00:	9c 83       	std	Y+4, r25	; 0x04
    2d02:	8b 83       	std	Y+3, r24	; 0x03
		while(__ticks)
		{
			// wait 1/10 ms
			_delay_loop_2(((F_CPU) / 4e3) / 10);
			__ticks --;
    2d04:	8d 81       	ldd	r24, Y+5	; 0x05
    2d06:	9e 81       	ldd	r25, Y+6	; 0x06
    2d08:	01 97       	sbiw	r24, 0x01	; 1
    2d0a:	9e 83       	std	Y+6, r25	; 0x06
    2d0c:	8d 83       	std	Y+5, r24	; 0x05
		__ticks = 1;
	else if (__tmp > 65535)
	{
		//	__ticks = requested delay in 1/10 ms
		__ticks = (uint16_t) (__ms * 10.0);
		while(__ticks)
    2d0e:	8d 81       	ldd	r24, Y+5	; 0x05
    2d10:	9e 81       	ldd	r25, Y+6	; 0x06
    2d12:	00 97       	sbiw	r24, 0x00	; 0
    2d14:	69 f7       	brne	.-38     	; 0x2cf0 <confirmPass+0x214>
    2d16:	14 c0       	rjmp	.+40     	; 0x2d40 <confirmPass+0x264>
			__ticks --;
		}
		return;
	}
	else
		__ticks = (uint16_t)__tmp;
    2d18:	6f 81       	ldd	r22, Y+7	; 0x07
    2d1a:	78 85       	ldd	r23, Y+8	; 0x08
    2d1c:	89 85       	ldd	r24, Y+9	; 0x09
    2d1e:	9a 85       	ldd	r25, Y+10	; 0x0a
    2d20:	0e 94 49 00 	call	0x92	; 0x92 <__fixunssfsi>
    2d24:	dc 01       	movw	r26, r24
    2d26:	cb 01       	movw	r24, r22
    2d28:	9e 83       	std	Y+6, r25	; 0x06
    2d2a:	8d 83       	std	Y+5, r24	; 0x05
    2d2c:	8d 81       	ldd	r24, Y+5	; 0x05
    2d2e:	9e 81       	ldd	r25, Y+6	; 0x06
    2d30:	9a 83       	std	Y+2, r25	; 0x02
    2d32:	89 83       	std	Y+1, r24	; 0x01
    2d34:	89 81       	ldd	r24, Y+1	; 0x01
    2d36:	9a 81       	ldd	r25, Y+2	; 0x02
    2d38:	01 97       	sbiw	r24, 0x01	; 1
    2d3a:	f1 f7       	brne	.-4      	; 0x2d38 <confirmPass+0x25c>
    2d3c:	9a 83       	std	Y+2, r25	; 0x02
    2d3e:	89 83       	std	Y+1, r24	; 0x01
	}

	_delay_ms(400); /*if not introduced and there was a mismatch, the first digit of the new password would be 'C'*/
	//uint8 confirm = UART_receiveByte(); //[SOLVED] doesn't return --> reason: Eep_Write() wasn't returning due to the polling in TWI_stop()

	return UART_receiveByte();
    2d40:	0e 94 80 0d 	call	0x1b00	; 0x1b00 <UART_receiveByte>
}
    2d44:	6c 96       	adiw	r28, 0x1c	; 28
    2d46:	0f b6       	in	r0, 0x3f	; 63
    2d48:	f8 94       	cli
    2d4a:	de bf       	out	0x3e, r29	; 62
    2d4c:	0f be       	out	0x3f, r0	; 63
    2d4e:	cd bf       	out	0x3d, r28	; 61
    2d50:	cf 91       	pop	r28
    2d52:	df 91       	pop	r29
    2d54:	08 95       	ret

00002d56 <keypad_getPressedKey>:
 * [DESCRIPTION]:
 * [Args]: -
 * [Return]: returns the number/character associated with the pressed key
 -----------------------------------------*/
uint8 keypad_getPressedKey()
{
    2d56:	df 93       	push	r29
    2d58:	cf 93       	push	r28
    2d5a:	00 d0       	rcall	.+0      	; 0x2d5c <keypad_getPressedKey+0x6>
    2d5c:	cd b7       	in	r28, 0x3d	; 61
    2d5e:	de b7       	in	r29, 0x3e	; 62
	uint8 col = 0;
    2d60:	1a 82       	std	Y+2, r1	; 0x02
	uint8 row = 0;
    2d62:	19 82       	std	Y+1, r1	; 0x01
#elif (N_COL == 3)
	const uint8 keypad_buttons [N_BUTTONS] = {1, 2, 3, 4, 5, 6, 7, 8, 9, '*', 0, '#'};
#endif
	while (1)
	{
		for (col=0 ; col <N_COL; col++)
    2d64:	1a 82       	std	Y+2, r1	; 0x02
    2d66:	50 c0       	rjmp	.+160    	; 0x2e08 <keypad_getPressedKey+0xb2>
		{
			/*all row pins are always inputs.
			 * only one column is configured as o/p each iteration.
			 */
			KEYPAD_PORT_DIR = (0b00010000<<col);
    2d68:	e7 e3       	ldi	r30, 0x37	; 55
    2d6a:	f0 e0       	ldi	r31, 0x00	; 0
    2d6c:	8a 81       	ldd	r24, Y+2	; 0x02
    2d6e:	28 2f       	mov	r18, r24
    2d70:	30 e0       	ldi	r19, 0x00	; 0
    2d72:	80 e1       	ldi	r24, 0x10	; 16
    2d74:	90 e0       	ldi	r25, 0x00	; 0
    2d76:	02 c0       	rjmp	.+4      	; 0x2d7c <keypad_getPressedKey+0x26>
    2d78:	88 0f       	add	r24, r24
    2d7a:	99 1f       	adc	r25, r25
    2d7c:	2a 95       	dec	r18
    2d7e:	e2 f7       	brpl	.-8      	; 0x2d78 <keypad_getPressedKey+0x22>
    2d80:	80 83       	st	Z, r24

			/*all row pins are connected to internal pull-up resistors.
			 * the selected column is enabled.
			 */
			KEYPAD_PORT_OUT = (~(0b00010000<<col));
    2d82:	e8 e3       	ldi	r30, 0x38	; 56
    2d84:	f0 e0       	ldi	r31, 0x00	; 0
    2d86:	8a 81       	ldd	r24, Y+2	; 0x02
    2d88:	28 2f       	mov	r18, r24
    2d8a:	30 e0       	ldi	r19, 0x00	; 0
    2d8c:	80 e1       	ldi	r24, 0x10	; 16
    2d8e:	90 e0       	ldi	r25, 0x00	; 0
    2d90:	02 2e       	mov	r0, r18
    2d92:	02 c0       	rjmp	.+4      	; 0x2d98 <keypad_getPressedKey+0x42>
    2d94:	88 0f       	add	r24, r24
    2d96:	99 1f       	adc	r25, r25
    2d98:	0a 94       	dec	r0
    2d9a:	e2 f7       	brpl	.-8      	; 0x2d94 <keypad_getPressedKey+0x3e>
    2d9c:	80 95       	com	r24
    2d9e:	80 83       	st	Z, r24


			for (row=0; row < N_ROW; row++)
    2da0:	19 82       	std	Y+1, r1	; 0x01
    2da2:	2c c0       	rjmp	.+88     	; 0x2dfc <keypad_getPressedKey+0xa6>
			{
				if (BIT_IS_CLEAR(KEYPAD_PORT_IN, row ))
    2da4:	e6 e3       	ldi	r30, 0x36	; 54
    2da6:	f0 e0       	ldi	r31, 0x00	; 0
    2da8:	80 81       	ld	r24, Z
    2daa:	28 2f       	mov	r18, r24
    2dac:	30 e0       	ldi	r19, 0x00	; 0
    2dae:	89 81       	ldd	r24, Y+1	; 0x01
    2db0:	88 2f       	mov	r24, r24
    2db2:	90 e0       	ldi	r25, 0x00	; 0
    2db4:	a9 01       	movw	r20, r18
    2db6:	02 c0       	rjmp	.+4      	; 0x2dbc <keypad_getPressedKey+0x66>
    2db8:	55 95       	asr	r21
    2dba:	47 95       	ror	r20
    2dbc:	8a 95       	dec	r24
    2dbe:	e2 f7       	brpl	.-8      	; 0x2db8 <keypad_getPressedKey+0x62>
    2dc0:	ca 01       	movw	r24, r20
    2dc2:	81 70       	andi	r24, 0x01	; 1
    2dc4:	90 70       	andi	r25, 0x00	; 0
    2dc6:	00 97       	sbiw	r24, 0x00	; 0
    2dc8:	b1 f4       	brne	.+44     	; 0x2df6 <keypad_getPressedKey+0xa0>
				{
					return ( keypad_buttons[row*N_COL + col] );
    2dca:	89 81       	ldd	r24, Y+1	; 0x01
    2dcc:	88 2f       	mov	r24, r24
    2dce:	90 e0       	ldi	r25, 0x00	; 0
    2dd0:	9c 01       	movw	r18, r24
    2dd2:	22 0f       	add	r18, r18
    2dd4:	33 1f       	adc	r19, r19
    2dd6:	22 0f       	add	r18, r18
    2dd8:	33 1f       	adc	r19, r19
    2dda:	8a 81       	ldd	r24, Y+2	; 0x02
    2ddc:	88 2f       	mov	r24, r24
    2dde:	90 e0       	ldi	r25, 0x00	; 0
    2de0:	82 0f       	add	r24, r18
    2de2:	93 1f       	adc	r25, r19
    2de4:	fc 01       	movw	r30, r24
    2de6:	ed 5e       	subi	r30, 0xED	; 237
    2de8:	fd 4f       	sbci	r31, 0xFD	; 253
    2dea:	80 81       	ld	r24, Z
				}

			}
		}
	}
}
    2dec:	0f 90       	pop	r0
    2dee:	0f 90       	pop	r0
    2df0:	cf 91       	pop	r28
    2df2:	df 91       	pop	r29
    2df4:	08 95       	ret
			 * the selected column is enabled.
			 */
			KEYPAD_PORT_OUT = (~(0b00010000<<col));


			for (row=0; row < N_ROW; row++)
    2df6:	89 81       	ldd	r24, Y+1	; 0x01
    2df8:	8f 5f       	subi	r24, 0xFF	; 255
    2dfa:	89 83       	std	Y+1, r24	; 0x01
    2dfc:	89 81       	ldd	r24, Y+1	; 0x01
    2dfe:	84 30       	cpi	r24, 0x04	; 4
    2e00:	88 f2       	brcs	.-94     	; 0x2da4 <keypad_getPressedKey+0x4e>
#elif (N_COL == 3)
	const uint8 keypad_buttons [N_BUTTONS] = {1, 2, 3, 4, 5, 6, 7, 8, 9, '*', 0, '#'};
#endif
	while (1)
	{
		for (col=0 ; col <N_COL; col++)
    2e02:	8a 81       	ldd	r24, Y+2	; 0x02
    2e04:	8f 5f       	subi	r24, 0xFF	; 255
    2e06:	8a 83       	std	Y+2, r24	; 0x02
    2e08:	8a 81       	ldd	r24, Y+2	; 0x02
    2e0a:	84 30       	cpi	r24, 0x04	; 4
    2e0c:	08 f4       	brcc	.+2      	; 0x2e10 <keypad_getPressedKey+0xba>
    2e0e:	ac cf       	rjmp	.-168    	; 0x2d68 <keypad_getPressedKey+0x12>
    2e10:	a9 cf       	rjmp	.-174    	; 0x2d64 <keypad_getPressedKey+0xe>

00002e12 <__udivmodsi4>:
    2e12:	a1 e2       	ldi	r26, 0x21	; 33
    2e14:	1a 2e       	mov	r1, r26
    2e16:	aa 1b       	sub	r26, r26
    2e18:	bb 1b       	sub	r27, r27
    2e1a:	fd 01       	movw	r30, r26
    2e1c:	0d c0       	rjmp	.+26     	; 0x2e38 <__udivmodsi4_ep>

00002e1e <__udivmodsi4_loop>:
    2e1e:	aa 1f       	adc	r26, r26
    2e20:	bb 1f       	adc	r27, r27
    2e22:	ee 1f       	adc	r30, r30
    2e24:	ff 1f       	adc	r31, r31
    2e26:	a2 17       	cp	r26, r18
    2e28:	b3 07       	cpc	r27, r19
    2e2a:	e4 07       	cpc	r30, r20
    2e2c:	f5 07       	cpc	r31, r21
    2e2e:	20 f0       	brcs	.+8      	; 0x2e38 <__udivmodsi4_ep>
    2e30:	a2 1b       	sub	r26, r18
    2e32:	b3 0b       	sbc	r27, r19
    2e34:	e4 0b       	sbc	r30, r20
    2e36:	f5 0b       	sbc	r31, r21

00002e38 <__udivmodsi4_ep>:
    2e38:	66 1f       	adc	r22, r22
    2e3a:	77 1f       	adc	r23, r23
    2e3c:	88 1f       	adc	r24, r24
    2e3e:	99 1f       	adc	r25, r25
    2e40:	1a 94       	dec	r1
    2e42:	69 f7       	brne	.-38     	; 0x2e1e <__udivmodsi4_loop>
    2e44:	60 95       	com	r22
    2e46:	70 95       	com	r23
    2e48:	80 95       	com	r24
    2e4a:	90 95       	com	r25
    2e4c:	9b 01       	movw	r18, r22
    2e4e:	ac 01       	movw	r20, r24
    2e50:	bd 01       	movw	r22, r26
    2e52:	cf 01       	movw	r24, r30
    2e54:	08 95       	ret

00002e56 <__prologue_saves__>:
    2e56:	2f 92       	push	r2
    2e58:	3f 92       	push	r3
    2e5a:	4f 92       	push	r4
    2e5c:	5f 92       	push	r5
    2e5e:	6f 92       	push	r6
    2e60:	7f 92       	push	r7
    2e62:	8f 92       	push	r8
    2e64:	9f 92       	push	r9
    2e66:	af 92       	push	r10
    2e68:	bf 92       	push	r11
    2e6a:	cf 92       	push	r12
    2e6c:	df 92       	push	r13
    2e6e:	ef 92       	push	r14
    2e70:	ff 92       	push	r15
    2e72:	0f 93       	push	r16
    2e74:	1f 93       	push	r17
    2e76:	cf 93       	push	r28
    2e78:	df 93       	push	r29
    2e7a:	cd b7       	in	r28, 0x3d	; 61
    2e7c:	de b7       	in	r29, 0x3e	; 62
    2e7e:	ca 1b       	sub	r28, r26
    2e80:	db 0b       	sbc	r29, r27
    2e82:	0f b6       	in	r0, 0x3f	; 63
    2e84:	f8 94       	cli
    2e86:	de bf       	out	0x3e, r29	; 62
    2e88:	0f be       	out	0x3f, r0	; 63
    2e8a:	cd bf       	out	0x3d, r28	; 61
    2e8c:	09 94       	ijmp

00002e8e <__epilogue_restores__>:
    2e8e:	2a 88       	ldd	r2, Y+18	; 0x12
    2e90:	39 88       	ldd	r3, Y+17	; 0x11
    2e92:	48 88       	ldd	r4, Y+16	; 0x10
    2e94:	5f 84       	ldd	r5, Y+15	; 0x0f
    2e96:	6e 84       	ldd	r6, Y+14	; 0x0e
    2e98:	7d 84       	ldd	r7, Y+13	; 0x0d
    2e9a:	8c 84       	ldd	r8, Y+12	; 0x0c
    2e9c:	9b 84       	ldd	r9, Y+11	; 0x0b
    2e9e:	aa 84       	ldd	r10, Y+10	; 0x0a
    2ea0:	b9 84       	ldd	r11, Y+9	; 0x09
    2ea2:	c8 84       	ldd	r12, Y+8	; 0x08
    2ea4:	df 80       	ldd	r13, Y+7	; 0x07
    2ea6:	ee 80       	ldd	r14, Y+6	; 0x06
    2ea8:	fd 80       	ldd	r15, Y+5	; 0x05
    2eaa:	0c 81       	ldd	r16, Y+4	; 0x04
    2eac:	1b 81       	ldd	r17, Y+3	; 0x03
    2eae:	aa 81       	ldd	r26, Y+2	; 0x02
    2eb0:	b9 81       	ldd	r27, Y+1	; 0x01
    2eb2:	ce 0f       	add	r28, r30
    2eb4:	d1 1d       	adc	r29, r1
    2eb6:	0f b6       	in	r0, 0x3f	; 63
    2eb8:	f8 94       	cli
    2eba:	de bf       	out	0x3e, r29	; 62
    2ebc:	0f be       	out	0x3f, r0	; 63
    2ebe:	cd bf       	out	0x3d, r28	; 61
    2ec0:	ed 01       	movw	r28, r26
    2ec2:	08 95       	ret

00002ec4 <_exit>:
    2ec4:	f8 94       	cli

00002ec6 <__stop_program>:
    2ec6:	ff cf       	rjmp	.-2      	; 0x2ec6 <__stop_program>
